Component: ARM Compiler 5.06 update 1 (build 61) Tool: armlink [4d35a8]

==============================================================================

Section Cross References

    startup_fm33lc0xx.o(STACK) refers (Special) to heapauxi.o(.text) for __use_two_region_memory
    startup_fm33lc0xx.o(HEAP) refers (Special) to heapauxi.o(.text) for __use_two_region_memory
    startup_fm33lc0xx.o(RESET) refers (Special) to heapauxi.o(.text) for __use_two_region_memory
    startup_fm33lc0xx.o(RESET) refers to startup_fm33lc0xx.o(STACK) for __initial_sp
    startup_fm33lc0xx.o(RESET) refers to startup_fm33lc0xx.o(.text) for Reset_Handler
    startup_fm33lc0xx.o(RESET) refers to main.o(i.HardFault_Handler) for HardFault_Handler
    startup_fm33lc0xx.o(RESET) refers to port.o(i.vPortSVCHandler) for vPortSVCHandler
    startup_fm33lc0xx.o(RESET) refers to port.o(.emb_text) for xPortPendSVHandler
    startup_fm33lc0xx.o(RESET) refers to port.o(i.xPortSysTickHandler) for xPortSysTickHandler
    startup_fm33lc0xx.o(RESET) refers to adc.o(i.ADC_IRQHandler) for ADC_IRQHandler
    startup_fm33lc0xx.o(RESET) refers to lptim32_timing.o(i.LPTIM_IRQHandler) for LPTIM_IRQHandler
    startup_fm33lc0xx.o(RESET) refers to uart.o(i.DMA_IRQHandler) for DMA_IRQHandler
    startup_fm33lc0xx.o(RESET) refers to bstim32_timing.o(i.BSTIM_IRQHandler) for BSTIM_IRQHandler
    startup_fm33lc0xx.o(.text) refers (Special) to heapauxi.o(.text) for __use_two_region_memory
    startup_fm33lc0xx.o(.text) refers to system_fm33lc0xx.o(i.SystemInit) for SystemInit
    startup_fm33lc0xx.o(.text) refers to __main.o(!!!main) for __main
    startup_fm33lc0xx.o(.text) refers to startup_fm33lc0xx.o(HEAP) for Heap_Mem
    startup_fm33lc0xx.o(.text) refers to startup_fm33lc0xx.o(STACK) for Stack_Mem
    mf_config.o(i.MF_ADC_Common_Init) refers to fm33lc0xx_fl_adc.o(i.FL_ADC_CommonInit) for FL_ADC_CommonInit
    mf_config.o(i.MF_ADC_Init) refers to fm33lc0xx_fl_adc.o(i.FL_ADC_Init) for FL_ADC_Init
    mf_config.o(i.MF_ADC_Init) refers to fm33lc0xx_fl_gpio.o(i.FL_GPIO_Init) for FL_GPIO_Init
    mf_config.o(i.MF_BSTIM32_Init) refers to fm33lc0xx_fl_bstim32.o(i.FL_BSTIM32_Init) for FL_BSTIM32_Init
    mf_config.o(i.MF_Config_Init) refers to mf_config.o(i.MF_ADC_Common_Init) for MF_ADC_Common_Init
    mf_config.o(i.MF_Config_Init) refers to mf_config.o(i.MF_ADC_Init) for MF_ADC_Init
    mf_config.o(i.MF_Config_Init) refers to mf_config.o(i.MF_BSTIM32_Init) for MF_BSTIM32_Init
    mf_config.o(i.MF_Config_Init) refers to mf_config.o(i.MF_LPTIM32_Init) for MF_LPTIM32_Init
    mf_config.o(i.MF_Config_Init) refers to mf_config.o(i.MF_NVIC_Init) for MF_NVIC_Init
    mf_config.o(i.MF_LPTIM32_Init) refers to fm33lc0xx_fl_lptim32.o(i.FL_LPTIM32_Init) for FL_LPTIM32_Init
    mf_config.o(i.MF_NVIC_Init) refers to system_fm33lc0xx.o(i.NVIC_Init) for NVIC_Init
    adc.o(i.ADC_IRQHandler) refers to adc.o(i.FL_ADC_IsActiveFlag_EndOfConversion) for FL_ADC_IsActiveFlag_EndOfConversion
    adc.o(i.ADC_IRQHandler) refers to adc.o(i.FL_ADC_ClearFlag_EndOfConversion) for FL_ADC_ClearFlag_EndOfConversion
    adc.o(i.ADC_IRQHandler) refers to adc.o(.data) for ADCComplete
    adc.o(i.GetConvertSample) refers to adc.o(i.GetSingleChannelSample_POLL) for GetSingleChannelSample_POLL
    adc.o(i.GetConvertSample) refers to adc.o(.data) for ADCbuffer
    adc.o(i.GetSingleChannelSample_IT) refers to adc.o(i.FL_RCC_SetADCPrescaler) for FL_RCC_SetADCPrescaler
    adc.o(i.GetSingleChannelSample_IT) refers to adc.o(i.FL_ADC_EnableSequencerChannel) for FL_ADC_EnableSequencerChannel
    adc.o(i.GetSingleChannelSample_IT) refers to adc.o(i.FL_ADC_ClearFlag_EndOfConversion) for FL_ADC_ClearFlag_EndOfConversion
    adc.o(i.GetSingleChannelSample_IT) refers to adc.o(i.FL_ADC_Enable) for FL_ADC_Enable
    adc.o(i.GetSingleChannelSample_IT) refers to adc.o(i.FL_ADC_EnableSWConversion) for FL_ADC_EnableSWConversion
    adc.o(i.GetSingleChannelSample_IT) refers to tasks.o(i.vTaskDelay) for vTaskDelay
    adc.o(i.GetSingleChannelSample_IT) refers to adc.o(i.FL_ADC_ReadConversionData) for FL_ADC_ReadConversionData
    adc.o(i.GetSingleChannelSample_IT) refers to adc.o(i.FL_ADC_Disable) for FL_ADC_Disable
    adc.o(i.GetSingleChannelSample_IT) refers to adc.o(i.FL_ADC_DisableSequencerChannel) for FL_ADC_DisableSequencerChannel
    adc.o(i.GetSingleChannelSample_IT) refers to adc.o(.data) for ADCComplete
    adc.o(i.GetSingleChannelSample_POLL) refers to adc.o(i.FL_RCC_SetADCPrescaler) for FL_RCC_SetADCPrescaler
    adc.o(i.GetSingleChannelSample_POLL) refers to adc.o(i.FL_ADC_EnableSequencerChannel) for FL_ADC_EnableSequencerChannel
    adc.o(i.GetSingleChannelSample_POLL) refers to adc.o(i.FL_ADC_ClearFlag_EndOfConversion) for FL_ADC_ClearFlag_EndOfConversion
    adc.o(i.GetSingleChannelSample_POLL) refers to adc.o(i.FL_ADC_Enable) for FL_ADC_Enable
    adc.o(i.GetSingleChannelSample_POLL) refers to adc.o(i.FL_ADC_EnableSWConversion) for FL_ADC_EnableSWConversion
    adc.o(i.GetSingleChannelSample_POLL) refers to tasks.o(i.vTaskDelay) for vTaskDelay
    adc.o(i.GetSingleChannelSample_POLL) refers to adc.o(i.FL_ADC_IsActiveFlag_EndOfConversion) for FL_ADC_IsActiveFlag_EndOfConversion
    adc.o(i.GetSingleChannelSample_POLL) refers to adc.o(i.FL_ADC_ReadConversionData) for FL_ADC_ReadConversionData
    adc.o(i.GetSingleChannelSample_POLL) refers to adc.o(i.FL_ADC_Disable) for FL_ADC_Disable
    adc.o(i.GetSingleChannelSample_POLL) refers to adc.o(i.FL_ADC_DisableSequencerChannel) for FL_ADC_DisableSequencerChannel
    adc.o(i.GetSingleChannelVoltage_IT) refers to adc.o(i.GetVREF1P2Sample_IT) for GetVREF1P2Sample_IT
    adc.o(i.GetSingleChannelVoltage_IT) refers to adc.o(i.GetSingleChannelSample_IT) for GetSingleChannelSample_IT
    adc.o(i.GetSingleChannelVoltage_IT) refers to llmul.o(.text) for __aeabi_lmul
    adc.o(i.GetSingleChannelVoltage_IT) refers to lludiv.o(.text) for __aeabi_uldivmod
    adc.o(i.GetSingleChannelVoltage_POLL) refers to adc.o(i.GetVREF1P2Sample_POLL) for GetVREF1P2Sample_POLL
    adc.o(i.GetSingleChannelVoltage_POLL) refers to adc.o(i.GetSingleChannelSample_POLL) for GetSingleChannelSample_POLL
    adc.o(i.GetSingleChannelVoltage_POLL) refers to llmul.o(.text) for __aeabi_lmul
    adc.o(i.GetSingleChannelVoltage_POLL) refers to lludiv.o(.text) for __aeabi_uldivmod
    adc.o(i.GetTSSample_POLL) refers to adc.o(i.FL_RCC_SetADCPrescaler) for FL_RCC_SetADCPrescaler
    adc.o(i.GetTSSample_POLL) refers to adc.o(i.FL_ADC_EnableSequencerChannel) for FL_ADC_EnableSequencerChannel
    adc.o(i.GetTSSample_POLL) refers to adc.o(i.FL_ADC_ClearFlag_EndOfConversion) for FL_ADC_ClearFlag_EndOfConversion
    adc.o(i.GetTSSample_POLL) refers to adc.o(i.FL_ADC_Enable) for FL_ADC_Enable
    adc.o(i.GetTSSample_POLL) refers to adc.o(i.FL_ADC_EnableSWConversion) for FL_ADC_EnableSWConversion
    adc.o(i.GetTSSample_POLL) refers to tasks.o(i.vTaskDelay) for vTaskDelay
    adc.o(i.GetTSSample_POLL) refers to adc.o(i.FL_ADC_IsActiveFlag_EndOfConversion) for FL_ADC_IsActiveFlag_EndOfConversion
    adc.o(i.GetTSSample_POLL) refers to adc.o(i.FL_ADC_ReadConversionData) for FL_ADC_ReadConversionData
    adc.o(i.GetTSSample_POLL) refers to adc.o(i.FL_ADC_Disable) for FL_ADC_Disable
    adc.o(i.GetTSSample_POLL) refers to adc.o(i.FL_ADC_DisableSequencerChannel) for FL_ADC_DisableSequencerChannel
    adc.o(i.GetTS_POLL) refers to adc.o(i.GetVREF1P2Sample_POLL) for GetVREF1P2Sample_POLL
    adc.o(i.GetTS_POLL) refers to adc.o(i.GetTSSample_POLL) for GetTSSample_POLL
    adc.o(i.GetTS_POLL) refers to llmul.o(.text) for __aeabi_lmul
    adc.o(i.GetTS_POLL) refers to lludiv.o(.text) for __aeabi_uldivmod
    adc.o(i.GetTS_POLL) refers to aeabi_sdiv.o(.text) for __aeabi_idivmod
    adc.o(i.GetTS_POLL) refers to dflti.o(.text) for __aeabi_ui2d
    adc.o(i.GetTS_POLL) refers to dmul.o(.text) for __aeabi_dmul
    adc.o(i.GetTS_POLL) refers to daddsub.o(.text) for __aeabi_dsub
    adc.o(i.GetTS_POLL) refers to d2f.o(.text) for __aeabi_d2f
    adc.o(i.GetTS_POLL) refers to f2d.o(.text) for __aeabi_f2d
    adc.o(i.GetTS_POLL) refers to ddiv.o(.text) for __aeabi_ddiv
    adc.o(i.GetVREF1P2Sample_IT) refers to adc.o(i.FL_RCC_SetADCPrescaler) for FL_RCC_SetADCPrescaler
    adc.o(i.GetVREF1P2Sample_IT) refers to adc.o(i.FL_VREF_EnableVREFBuffer) for FL_VREF_EnableVREFBuffer
    adc.o(i.GetVREF1P2Sample_IT) refers to adc.o(i.FL_ADC_EnableSequencerChannel) for FL_ADC_EnableSequencerChannel
    adc.o(i.GetVREF1P2Sample_IT) refers to adc.o(i.FL_ADC_ClearFlag_EndOfConversion) for FL_ADC_ClearFlag_EndOfConversion
    adc.o(i.GetVREF1P2Sample_IT) refers to adc.o(i.FL_ADC_Enable) for FL_ADC_Enable
    adc.o(i.GetVREF1P2Sample_IT) refers to adc.o(i.FL_ADC_EnableSWConversion) for FL_ADC_EnableSWConversion
    adc.o(i.GetVREF1P2Sample_IT) refers to tasks.o(i.vTaskDelay) for vTaskDelay
    adc.o(i.GetVREF1P2Sample_IT) refers to adc.o(i.FL_ADC_ReadConversionData) for FL_ADC_ReadConversionData
    adc.o(i.GetVREF1P2Sample_IT) refers to adc.o(i.FL_ADC_Disable) for FL_ADC_Disable
    adc.o(i.GetVREF1P2Sample_IT) refers to adc.o(i.FL_ADC_DisableSequencerChannel) for FL_ADC_DisableSequencerChannel
    adc.o(i.GetVREF1P2Sample_IT) refers to adc.o(i.FL_VREF_DisableVREFBuffer) for FL_VREF_DisableVREFBuffer
    adc.o(i.GetVREF1P2Sample_IT) refers to adc.o(.data) for ADCComplete
    adc.o(i.GetVREF1P2Sample_POLL) refers to adc.o(i.FL_RCC_SetADCPrescaler) for FL_RCC_SetADCPrescaler
    adc.o(i.GetVREF1P2Sample_POLL) refers to adc.o(i.FL_VREF_EnableVREFBuffer) for FL_VREF_EnableVREFBuffer
    adc.o(i.GetVREF1P2Sample_POLL) refers to adc.o(i.FL_ADC_EnableSequencerChannel) for FL_ADC_EnableSequencerChannel
    adc.o(i.GetVREF1P2Sample_POLL) refers to adc.o(i.FL_ADC_ClearFlag_EndOfConversion) for FL_ADC_ClearFlag_EndOfConversion
    adc.o(i.GetVREF1P2Sample_POLL) refers to adc.o(i.FL_ADC_Enable) for FL_ADC_Enable
    adc.o(i.GetVREF1P2Sample_POLL) refers to adc.o(i.FL_ADC_EnableSWConversion) for FL_ADC_EnableSWConversion
    adc.o(i.GetVREF1P2Sample_POLL) refers to tasks.o(i.vTaskDelay) for vTaskDelay
    adc.o(i.GetVREF1P2Sample_POLL) refers to adc.o(i.FL_ADC_IsActiveFlag_EndOfConversion) for FL_ADC_IsActiveFlag_EndOfConversion
    adc.o(i.GetVREF1P2Sample_POLL) refers to adc.o(i.FL_ADC_ReadConversionData) for FL_ADC_ReadConversionData
    adc.o(i.GetVREF1P2Sample_POLL) refers to adc.o(i.FL_ADC_Disable) for FL_ADC_Disable
    adc.o(i.GetVREF1P2Sample_POLL) refers to adc.o(i.FL_ADC_DisableSequencerChannel) for FL_ADC_DisableSequencerChannel
    adc.o(i.GetVREF1P2Sample_POLL) refers to adc.o(i.FL_VREF_DisableVREFBuffer) for FL_VREF_DisableVREFBuffer
    uart.o(i.DMA_IRQHandler) refers to uart.o(i.FL_DMA_ClearFlag_TransferComplete) for FL_DMA_ClearFlag_TransferComplete
    uart.o(i.DMA_IRQHandler) refers to taskuart.o(i.DMA_IRQCallBack) for DMA_IRQCallBack
    uart.o(i.DebugInit) refers to uart.o(i.Uartx_Init) for Uartx_Init
    uart.o(i.UARTx_DMA) refers to rt_memclr.o(.text) for __aeabi_memclr4
    uart.o(i.UARTx_DMA) refers to uart.o(i.Uartx_Init) for Uartx_Init
    uart.o(i.UARTx_DMA) refers to fm33lc0xx_fl_dma.o(i.FL_DMA_Init) for FL_DMA_Init
    uart.o(i.UARTx_DMA) refers to fm33lc0xx_fl_dma.o(i.FL_DMA_StartTransmission) for FL_DMA_StartTransmission
    uart.o(i.UARTx_DMA) refers to uart.o(i.NVIC_DisableIRQ) for NVIC_DisableIRQ
    uart.o(i.UARTx_DMA) refers to uart.o(i.NVIC_SetPriority) for NVIC_SetPriority
    uart.o(i.UARTx_DMA) refers to uart.o(i.NVIC_EnableIRQ) for NVIC_EnableIRQ
    uart.o(i.UARTx_DMA) refers to uart.o(i.FL_DMA_ClearFlag_TransferComplete) for FL_DMA_ClearFlag_TransferComplete
    uart.o(i.Uartx_Init) refers to rt_memclr.o(.text) for __aeabi_memclr4
    uart.o(i.Uartx_Init) refers to fm33lc0xx_fl_gpio.o(i.FL_GPIO_Init) for FL_GPIO_Init
    uart.o(i.Uartx_Init) refers to uart.o(i.NVIC_DisableIRQ) for NVIC_DisableIRQ
    uart.o(i.Uartx_Init) refers to uart.o(i.NVIC_SetPriority) for NVIC_SetPriority
    uart.o(i.Uartx_Init) refers to uart.o(i.NVIC_EnableIRQ) for NVIC_EnableIRQ
    uart.o(i.Uartx_Init) refers to fm33lc0xx_fl_uart.o(i.FL_UART_Init) for FL_UART_Init
    taskuart.o(i.DMA_IRQCallBack) refers to queue.o(i.xQueueGiveFromISR) for xQueueGiveFromISR
    taskuart.o(i.DMA_IRQCallBack) refers to taskuart.o(.data) for xHigherPriorityTaskWoken
    taskuart.o(i.DMA_IRQCallBack) refers to main.o(.data) for dmaSemaphore
    taskuart.o(i.UartTask) refers to _printf_percent.o(.ARM.Collect$$_printf_percent$$00000000) for _printf_percent
    taskuart.o(i.UartTask) refers to _printf_x.o(.ARM.Collect$$_printf_percent$$0000000C) for _printf_x
    taskuart.o(i.UartTask) refers to _printf_hex_int.o(.text) for _printf_longlong_hex
    taskuart.o(i.UartTask) refers to uart.o(i.UARTx_DMA_Rx) for UARTx_DMA_Rx
    taskuart.o(i.UartTask) refers to queue.o(i.xQueueSemaphoreTake) for xQueueSemaphoreTake
    taskuart.o(i.UartTask) refers to noretval__2printf.o(.text) for __2printf
    taskuart.o(i.UartTask) refers to main.o(.bss) for TestRxData
    taskuart.o(i.UartTask) refers to main.o(.data) for dmaSemaphore
    gpio.o(i.GPIO_Init) refers to fm33lc0xx_fl_gpio.o(i.FL_GPIO_Init) for FL_GPIO_Init
    taskadc.o(i.AdcTask) refers to _printf_percent.o(.ARM.Collect$$_printf_percent$$00000000) for _printf_percent
    taskadc.o(i.AdcTask) refers to _printf_d.o(.ARM.Collect$$_printf_percent$$00000009) for _printf_d
    taskadc.o(i.AdcTask) refers to _printf_dec.o(.text) for _printf_int_dec
    taskadc.o(i.AdcTask) refers to adc.o(i.GetConvertSample) for GetConvertSample
    taskadc.o(i.AdcTask) refers to queue.o(i.xQueueGenericSend) for xQueueGenericSend
    taskadc.o(i.AdcTask) refers to noretval__2printf.o(.text) for __2printf
    taskadc.o(i.AdcTask) refers to tasks.o(i.vTaskDelay) for vTaskDelay
    taskadc.o(i.AdcTask) refers to main.o(.data) for ADC_QueueHandle
    taskadc.o(i.AdcTask) refers to adc.o(.data) for ADCbuffer
    main.o(i.HardFault_Handler) refers to noretval__2printf.o(.text) for __2printf
    main.o(i.LedTask) refers to tasks.o(i.vTaskDelay) for vTaskDelay
    main.o(i.LedTask) refers to gpio.o(i.GPIO_ToggleBits) for GPIO_ToggleBits
    main.o(i.main) refers to mf_config.o(i.MF_Clock_Init) for MF_Clock_Init
    main.o(i.main) refers to mf_config.o(i.MF_SystemClock_Config) for MF_SystemClock_Config
    main.o(i.main) refers to user_init.o(i.UserInit) for UserInit
    main.o(i.main) refers to mf_config.o(i.MF_Config_Init) for MF_Config_Init
    main.o(i.main) refers to uart.o(i.UARTx_DMA) for UARTx_DMA
    main.o(i.main) refers to gpio.o(i.GPIO_Init) for GPIO_Init
    main.o(i.main) refers to queue.o(i.xQueueCreateCountingSemaphore) for xQueueCreateCountingSemaphore
    main.o(i.main) refers to tasks.o(i.xTaskCreate) for xTaskCreate
    main.o(i.main) refers to tasks.o(i.vTaskStartScheduler) for vTaskStartScheduler
    main.o(i.main) refers to main.o(.bss) for TestRxData
    main.o(i.main) refers to main.o(.data) for ADC_QueueHandle
    main.o(i.main) refers to main.o(i.LedTask) for LedTask
    main.o(i.main) refers to taskadc.o(i.AdcTask) for AdcTask
    main.o(i.main) refers to taskuart.o(i.UartTask) for UartTask
    user_init.o(.rev16_text) refers (Special) to use_no_semi_2.o(.text) for __use_no_semihosting
    user_init.o(.revsh_text) refers (Special) to use_no_semi_2.o(.text) for __use_no_semihosting
    user_init.o(i.ClockInit) refers (Special) to use_no_semi_2.o(.text) for __use_no_semihosting
    user_init.o(i.ClockInit) refers to user_init.o(i.FL_RCC_RCHF_WriteTrimValue) for FL_RCC_RCHF_WriteTrimValue
    user_init.o(i.DebugUartInit) refers (Special) to use_no_semi_2.o(.text) for __use_no_semihosting
    user_init.o(i.DebugUartInit) refers to rt_memclr.o(.text) for __aeabi_memclr4
    user_init.o(i.DebugUartInit) refers to fm33lc0xx_fl_gpio.o(i.FL_GPIO_Init) for FL_GPIO_Init
    user_init.o(i.DebugUartInit) refers to fm33lc0xx_fl_uart.o(i.FL_UART_Init) for FL_UART_Init
    user_init.o(i.DelayMs) refers (Special) to use_no_semi_2.o(.text) for __use_no_semihosting
    user_init.o(i.DelayMs) refers to user_init.o(i.DelayUs) for DelayUs
    user_init.o(i.DelayUs) refers (Special) to use_no_semi_2.o(.text) for __use_no_semihosting
    user_init.o(i.DelayUs) refers to fm33lc0xx_fl_rcc.o(i.FL_RCC_GetSystemClockFreq) for FL_RCC_GetSystemClockFreq
    user_init.o(i.DelayUs) refers to user_init.o(i.__ARM_common_ll_muluu) for __ARM_common_ll_muluu
    user_init.o(i.DelayUs) refers to lludiv.o(.text) for __aeabi_uldivmod
    user_init.o(i.FL_GPIO_ResetOutputPin) refers (Special) to use_no_semi_2.o(.text) for __use_no_semihosting
    user_init.o(i.FL_RCC_RCHF_WriteTrimValue) refers (Special) to use_no_semi_2.o(.text) for __use_no_semihosting
    user_init.o(i.FoutInit) refers (Special) to use_no_semi_2.o(.text) for __use_no_semihosting
    user_init.o(i.FoutInit) refers to rt_memclr.o(.text) for __aeabi_memclr4
    user_init.o(i.FoutInit) refers to fm33lc0xx_fl_gpio.o(i.FL_GPIO_Init) for FL_GPIO_Init
    user_init.o(i.LedInit) refers (Special) to use_no_semi_2.o(.text) for __use_no_semihosting
    user_init.o(i.LedInit) refers to rt_memclr.o(.text) for __aeabi_memclr4
    user_init.o(i.LedInit) refers to user_init.o(i.FL_GPIO_ResetOutputPin) for FL_GPIO_ResetOutputPin
    user_init.o(i.LedInit) refers to fm33lc0xx_fl_gpio.o(i.FL_GPIO_Init) for FL_GPIO_Init
    user_init.o(i.LedInit) refers to user_init.o(i.DelayMs) for DelayMs
    user_init.o(i.SystickInit) refers (Special) to use_no_semi_2.o(.text) for __use_no_semihosting
    user_init.o(i.UserInit) refers (Special) to use_no_semi_2.o(.text) for __use_no_semihosting
    user_init.o(i.UserInit) refers to user_init.o(i.SystickInit) for SystickInit
    user_init.o(i.UserInit) refers to user_init.o(i.LedInit) for LedInit
    user_init.o(i.UserInit) refers to user_init.o(i.DebugUartInit) for DebugUartInit
    user_init.o(i._sys_exit) refers (Special) to use_no_semi_2.o(.text) for __use_no_semihosting
    user_init.o(i.fputc) refers (Special) to use_no_semi_2.o(.text) for __use_no_semihosting
    user_init.o(.data) refers (Special) to use_no_semi_2.o(.text) for __use_no_semihosting
    system_fm33lc0xx.o(i.NVIC_Init) refers to system_fm33lc0xx.o(i.NVIC_SetPriority) for NVIC_SetPriority
    fm33lc0xx_fl_adc.o(i.FL_ADC_DeInit) refers to fm33lc0xx_fl_adc.o(i.FL_RCC_EnableResetAPB2Peripheral) for FL_RCC_EnableResetAPB2Peripheral
    fm33lc0xx_fl_adc.o(i.FL_ADC_DeInit) refers to fm33lc0xx_fl_adc.o(i.FL_RCC_DisableResetAPB2Peripheral) for FL_RCC_DisableResetAPB2Peripheral
    fm33lc0xx_fl_atim.o(i.FL_ATIM_BDTR_Init) refers to fm33lc0xx_fl_atim.o(i.FL_ATIM_GenerateUpdateEvent) for FL_ATIM_GenerateUpdateEvent
    fm33lc0xx_fl_atim.o(i.FL_ATIM_ETR_Init) refers to fm33lc0xx_fl_atim.o(i.FL_RCC_EnableGroup4BusClock) for FL_RCC_EnableGroup4BusClock
    fm33lc0xx_fl_atim.o(i.FL_ATIM_ETR_Init) refers to fm33lc0xx_fl_atim.o(i.FL_RCC_EnableGroup1OperationClock) for FL_RCC_EnableGroup1OperationClock
    fm33lc0xx_fl_atim.o(i.FL_ATIM_ETR_Init) refers to fm33lc0xx_fl_atim.o(i.FL_ATIM_GenerateUpdateEvent) for FL_ATIM_GenerateUpdateEvent
    fm33lc0xx_fl_atim.o(i.FL_ATIM_IC_Init) refers to fm33lc0xx_fl_atim.o(i.FL_RCC_EnableGroup4BusClock) for FL_RCC_EnableGroup4BusClock
    fm33lc0xx_fl_atim.o(i.FL_ATIM_IC_Init) refers to fm33lc0xx_fl_atim.o(i.FL_RCC_EnableGroup1OperationClock) for FL_RCC_EnableGroup1OperationClock
    fm33lc0xx_fl_atim.o(i.FL_ATIM_IC_Init) refers to fm33lc0xx_fl_atim.o(i.FL_ATIM_OC_DisableChannel) for FL_ATIM_OC_DisableChannel
    fm33lc0xx_fl_atim.o(i.FL_ATIM_IC_Init) refers to fm33lc0xx_fl_atim.o(i.FL_ATIM_CC_SetChannelMode) for FL_ATIM_CC_SetChannelMode
    fm33lc0xx_fl_atim.o(i.FL_ATIM_IC_Init) refers to fm33lc0xx_fl_atim.o(i.FL_ATIM_GenerateUpdateEvent) for FL_ATIM_GenerateUpdateEvent
    fm33lc0xx_fl_atim.o(i.FL_ATIM_Init) refers to fm33lc0xx_fl_atim.o(i.FL_RCC_EnableGroup4BusClock) for FL_RCC_EnableGroup4BusClock
    fm33lc0xx_fl_atim.o(i.FL_ATIM_Init) refers to fm33lc0xx_fl_atim.o(i.FL_RCC_EnableGroup1OperationClock) for FL_RCC_EnableGroup1OperationClock
    fm33lc0xx_fl_atim.o(i.FL_ATIM_Init) refers to fm33lc0xx_fl_atim.o(i.FL_ATIM_SetCounterAlignedMode) for FL_ATIM_SetCounterAlignedMode
    fm33lc0xx_fl_atim.o(i.FL_ATIM_OC_Init) refers to fm33lc0xx_fl_atim.o(i.FL_ATIM_OC_DisableChannel) for FL_ATIM_OC_DisableChannel
    fm33lc0xx_fl_atim.o(i.FL_ATIM_OC_Init) refers to fm33lc0xx_fl_atim.o(i.FL_ATIM_CC_SetChannelMode) for FL_ATIM_CC_SetChannelMode
    fm33lc0xx_fl_atim.o(i.FL_ATIM_OC_Init) refers to fm33lc0xx_fl_atim.o(i.OCConfig) for OCConfig
    fm33lc0xx_fl_atim.o(i.FL_ATIM_OC_Init) refers to fm33lc0xx_fl_atim.o(i.FL_ATIM_GenerateUpdateEvent) for FL_ATIM_GenerateUpdateEvent
    fm33lc0xx_fl_atim.o(i.FL_ATIM_SlaveMode_Init) refers to fm33lc0xx_fl_atim.o(i.FL_RCC_EnableGroup4BusClock) for FL_RCC_EnableGroup4BusClock
    fm33lc0xx_fl_atim.o(i.FL_ATIM_SlaveMode_Init) refers to fm33lc0xx_fl_atim.o(i.FL_RCC_EnableGroup1OperationClock) for FL_RCC_EnableGroup1OperationClock
    fm33lc0xx_fl_atim.o(i.FL_ATIM_SlaveMode_Init) refers to fm33lc0xx_fl_atim.o(i.FL_ATIM_SetSlaveMode) for FL_ATIM_SetSlaveMode
    fm33lc0xx_fl_atim.o(i.FL_ATIM_SlaveMode_Init) refers to fm33lc0xx_fl_atim.o(i.FL_ATIM_GenerateUpdateEvent) for FL_ATIM_GenerateUpdateEvent
    fm33lc0xx_fl_bstim32.o(i.FL_BSTIM32_DeInit) refers to fm33lc0xx_fl_bstim32.o(i.FL_RCC_EnableResetAPB2Peripheral) for FL_RCC_EnableResetAPB2Peripheral
    fm33lc0xx_fl_flash.o(i.FL_FLASH_PageErase) refers to fm33lc0xx_fl_flash.o(i.FL_RCC_EnableGroup2BusClock) for FL_RCC_EnableGroup2BusClock
    fm33lc0xx_fl_flash.o(i.FL_FLASH_PageErase) refers to fm33lc0xx_fl_flash.o(i.FL_FLASH_GetFlashLockStatus) for FL_FLASH_GetFlashLockStatus
    fm33lc0xx_fl_flash.o(i.FL_FLASH_PageErase) refers to fm33lc0xx_fl_flash.o(i.FL_RCC_EnableGroup2OperationClock) for FL_RCC_EnableGroup2OperationClock
    fm33lc0xx_fl_flash.o(i.FL_FLASH_PageErase) refers to fm33lc0xx_fl_flash.o(i.FL_FLASH_SetFlashEraseType) for FL_FLASH_SetFlashEraseType
    fm33lc0xx_fl_flash.o(i.FL_FLASH_PageErase) refers to fm33lc0xx_fl_flash.o(i.FL_FLASH_EnableErase) for FL_FLASH_EnableErase
    fm33lc0xx_fl_flash.o(i.FL_FLASH_PageErase) refers to fm33lc0xx_fl_flash.o(i.__get_PRIMASK) for __get_PRIMASK
    fm33lc0xx_fl_flash.o(i.FL_FLASH_PageErase) refers to fm33lc0xx_fl_flash.o(i.FL_FLASH_UnlockFlash) for FL_FLASH_UnlockFlash
    fm33lc0xx_fl_flash.o(i.FL_FLASH_PageErase) refers to fm33lc0xx_fl_flash.o(i.__set_PRIMASK) for __set_PRIMASK
    fm33lc0xx_fl_flash.o(i.FL_FLASH_PageErase) refers to fm33lc0xx_fl_flash.o(i.FL_FLASH_ClearFlag_EraseComplete) for FL_FLASH_ClearFlag_EraseComplete
    fm33lc0xx_fl_flash.o(i.FL_FLASH_PageErase) refers to fm33lc0xx_fl_flash.o(i.FL_FLASH_IsActiveFlag_ClockError) for FL_FLASH_IsActiveFlag_ClockError
    fm33lc0xx_fl_flash.o(i.FL_FLASH_PageErase) refers to fm33lc0xx_fl_flash.o(i.FL_FLASH_IsActiveFlag_KeyError) for FL_FLASH_IsActiveFlag_KeyError
    fm33lc0xx_fl_flash.o(i.FL_FLASH_PageErase) refers to fm33lc0xx_fl_flash.o(i.FL_FLASH_IsActiveFlag_AuthenticationError) for FL_FLASH_IsActiveFlag_AuthenticationError
    fm33lc0xx_fl_flash.o(i.FL_FLASH_PageErase) refers to fm33lc0xx_fl_flash.o(i.FL_FLASH_IsActiveFlag_EraseComplete) for FL_FLASH_IsActiveFlag_EraseComplete
    fm33lc0xx_fl_flash.o(i.FL_FLASH_PageErase) refers to fm33lc0xx_fl_flash.o(i.FL_FLASH_LockFlash) for FL_FLASH_LockFlash
    fm33lc0xx_fl_flash.o(i.FL_FLASH_PageErase) refers to fm33lc0xx_fl_flash.o(i.FL_RCC_DisableGroup2OperationClock) for FL_RCC_DisableGroup2OperationClock
    fm33lc0xx_fl_flash.o(i.FL_FLASH_Program_Page) refers to fm33lc0xx_fl_flash.o(i.FL_RCC_EnableGroup2BusClock) for FL_RCC_EnableGroup2BusClock
    fm33lc0xx_fl_flash.o(i.FL_FLASH_Program_Page) refers to fm33lc0xx_fl_flash.o(i.FL_RCC_EnableGroup2OperationClock) for FL_RCC_EnableGroup2OperationClock
    fm33lc0xx_fl_flash.o(i.FL_FLASH_Program_Page) refers to fm33lc0xx_fl_flash.o(i.FL_FLASH_EnableProgram) for FL_FLASH_EnableProgram
    fm33lc0xx_fl_flash.o(i.FL_FLASH_Program_Page) refers to fm33lc0xx_fl_flash.o(i.FL_FLASH_GetFlashLockStatus) for FL_FLASH_GetFlashLockStatus
    fm33lc0xx_fl_flash.o(i.FL_FLASH_Program_Page) refers to fm33lc0xx_fl_flash.o(i.__get_PRIMASK) for __get_PRIMASK
    fm33lc0xx_fl_flash.o(i.FL_FLASH_Program_Page) refers to fm33lc0xx_fl_flash.o(i.FL_FLASH_UnlockFlash) for FL_FLASH_UnlockFlash
    fm33lc0xx_fl_flash.o(i.FL_FLASH_Program_Page) refers to fm33lc0xx_fl_flash.o(i.__set_PRIMASK) for __set_PRIMASK
    fm33lc0xx_fl_flash.o(i.FL_FLASH_Program_Page) refers to fm33lc0xx_fl_flash.o(i.FL_FLASH_IsActiveFlag_ClockError) for FL_FLASH_IsActiveFlag_ClockError
    fm33lc0xx_fl_flash.o(i.FL_FLASH_Program_Page) refers to fm33lc0xx_fl_flash.o(i.FL_FLASH_IsActiveFlag_KeyError) for FL_FLASH_IsActiveFlag_KeyError
    fm33lc0xx_fl_flash.o(i.FL_FLASH_Program_Page) refers to fm33lc0xx_fl_flash.o(i.FL_FLASH_IsActiveFlag_AuthenticationError) for FL_FLASH_IsActiveFlag_AuthenticationError
    fm33lc0xx_fl_flash.o(i.FL_FLASH_Program_Page) refers to fm33lc0xx_fl_flash.o(i.FL_FLASH_IsActiveFlag_ProgramComplete) for FL_FLASH_IsActiveFlag_ProgramComplete
    fm33lc0xx_fl_flash.o(i.FL_FLASH_Program_Page) refers to fm33lc0xx_fl_flash.o(i.FL_FLASH_LockFlash) for FL_FLASH_LockFlash
    fm33lc0xx_fl_flash.o(i.FL_FLASH_Program_Page) refers to fm33lc0xx_fl_flash.o(i.FL_RCC_DisableGroup2OperationClock) for FL_RCC_DisableGroup2OperationClock
    fm33lc0xx_fl_flash.o(i.FL_FLASH_Program_Sector) refers to fm33lc0xx_fl_flash.o(i.FL_RCC_EnableGroup2BusClock) for FL_RCC_EnableGroup2BusClock
    fm33lc0xx_fl_flash.o(i.FL_FLASH_Program_Sector) refers to fm33lc0xx_fl_flash.o(i.FL_RCC_EnableGroup2OperationClock) for FL_RCC_EnableGroup2OperationClock
    fm33lc0xx_fl_flash.o(i.FL_FLASH_Program_Sector) refers to fm33lc0xx_fl_flash.o(i.FL_FLASH_EnableProgram) for FL_FLASH_EnableProgram
    fm33lc0xx_fl_flash.o(i.FL_FLASH_Program_Sector) refers to fm33lc0xx_fl_flash.o(i.FL_FLASH_GetFlashLockStatus) for FL_FLASH_GetFlashLockStatus
    fm33lc0xx_fl_flash.o(i.FL_FLASH_Program_Sector) refers to fm33lc0xx_fl_flash.o(i.__get_PRIMASK) for __get_PRIMASK
    fm33lc0xx_fl_flash.o(i.FL_FLASH_Program_Sector) refers to fm33lc0xx_fl_flash.o(i.FL_FLASH_UnlockFlash) for FL_FLASH_UnlockFlash
    fm33lc0xx_fl_flash.o(i.FL_FLASH_Program_Sector) refers to fm33lc0xx_fl_flash.o(i.__set_PRIMASK) for __set_PRIMASK
    fm33lc0xx_fl_flash.o(i.FL_FLASH_Program_Sector) refers to fm33lc0xx_fl_flash.o(i.FL_FLASH_IsActiveFlag_ClockError) for FL_FLASH_IsActiveFlag_ClockError
    fm33lc0xx_fl_flash.o(i.FL_FLASH_Program_Sector) refers to fm33lc0xx_fl_flash.o(i.FL_FLASH_IsActiveFlag_KeyError) for FL_FLASH_IsActiveFlag_KeyError
    fm33lc0xx_fl_flash.o(i.FL_FLASH_Program_Sector) refers to fm33lc0xx_fl_flash.o(i.FL_FLASH_IsActiveFlag_AuthenticationError) for FL_FLASH_IsActiveFlag_AuthenticationError
    fm33lc0xx_fl_flash.o(i.FL_FLASH_Program_Sector) refers to fm33lc0xx_fl_flash.o(i.FL_FLASH_IsActiveFlag_ProgramComplete) for FL_FLASH_IsActiveFlag_ProgramComplete
    fm33lc0xx_fl_flash.o(i.FL_FLASH_Program_Sector) refers to fm33lc0xx_fl_flash.o(i.FL_FLASH_LockFlash) for FL_FLASH_LockFlash
    fm33lc0xx_fl_flash.o(i.FL_FLASH_Program_Sector) refers to fm33lc0xx_fl_flash.o(i.FL_RCC_DisableGroup2OperationClock) for FL_RCC_DisableGroup2OperationClock
    fm33lc0xx_fl_flash.o(i.FL_FLASH_Program_Word) refers to fm33lc0xx_fl_flash.o(i.FL_RCC_EnableGroup2BusClock) for FL_RCC_EnableGroup2BusClock
    fm33lc0xx_fl_flash.o(i.FL_FLASH_Program_Word) refers to fm33lc0xx_fl_flash.o(i.FL_FLASH_GetFlashLockStatus) for FL_FLASH_GetFlashLockStatus
    fm33lc0xx_fl_flash.o(i.FL_FLASH_Program_Word) refers to fm33lc0xx_fl_flash.o(i.FL_RCC_EnableGroup2OperationClock) for FL_RCC_EnableGroup2OperationClock
    fm33lc0xx_fl_flash.o(i.FL_FLASH_Program_Word) refers to fm33lc0xx_fl_flash.o(i.FL_FLASH_EnableProgram) for FL_FLASH_EnableProgram
    fm33lc0xx_fl_flash.o(i.FL_FLASH_Program_Word) refers to fm33lc0xx_fl_flash.o(i.__get_PRIMASK) for __get_PRIMASK
    fm33lc0xx_fl_flash.o(i.FL_FLASH_Program_Word) refers to fm33lc0xx_fl_flash.o(i.FL_FLASH_UnlockFlash) for FL_FLASH_UnlockFlash
    fm33lc0xx_fl_flash.o(i.FL_FLASH_Program_Word) refers to fm33lc0xx_fl_flash.o(i.__set_PRIMASK) for __set_PRIMASK
    fm33lc0xx_fl_flash.o(i.FL_FLASH_Program_Word) refers to fm33lc0xx_fl_flash.o(i.FL_FLASH_IsActiveFlag_ClockError) for FL_FLASH_IsActiveFlag_ClockError
    fm33lc0xx_fl_flash.o(i.FL_FLASH_Program_Word) refers to fm33lc0xx_fl_flash.o(i.FL_FLASH_IsActiveFlag_KeyError) for FL_FLASH_IsActiveFlag_KeyError
    fm33lc0xx_fl_flash.o(i.FL_FLASH_Program_Word) refers to fm33lc0xx_fl_flash.o(i.FL_FLASH_IsActiveFlag_AuthenticationError) for FL_FLASH_IsActiveFlag_AuthenticationError
    fm33lc0xx_fl_flash.o(i.FL_FLASH_Program_Word) refers to fm33lc0xx_fl_flash.o(i.FL_FLASH_IsActiveFlag_ProgramComplete) for FL_FLASH_IsActiveFlag_ProgramComplete
    fm33lc0xx_fl_flash.o(i.FL_FLASH_Program_Word) refers to fm33lc0xx_fl_flash.o(i.FL_FLASH_LockFlash) for FL_FLASH_LockFlash
    fm33lc0xx_fl_flash.o(i.FL_FLASH_Program_Word) refers to fm33lc0xx_fl_flash.o(i.FL_RCC_DisableGroup2OperationClock) for FL_RCC_DisableGroup2OperationClock
    fm33lc0xx_fl_flash.o(i.FL_FLASH_Read_Dma) refers to rt_memclr.o(.text) for __aeabi_memclr4
    fm33lc0xx_fl_flash.o(i.FL_FLASH_Read_Dma) refers to fm33lc0xx_fl_dma.o(i.FL_DMA_Init) for FL_DMA_Init
    fm33lc0xx_fl_flash.o(i.FL_FLASH_Read_Dma) refers to fm33lc0xx_fl_flash.o(i.FL_DMA_WriteFlashAddress) for FL_DMA_WriteFlashAddress
    fm33lc0xx_fl_flash.o(i.FL_FLASH_Read_Dma) refers to fm33lc0xx_fl_flash.o(i.FL_DMA_WriteMemoryAddress) for FL_DMA_WriteMemoryAddress
    fm33lc0xx_fl_flash.o(i.FL_FLASH_Read_Dma) refers to fm33lc0xx_fl_flash.o(i.FL_DMA_WriteTransmissionSize) for FL_DMA_WriteTransmissionSize
    fm33lc0xx_fl_flash.o(i.FL_FLASH_Read_Dma) refers to fm33lc0xx_fl_flash.o(i.FL_DMA_ClearFlag_TransferComplete) for FL_DMA_ClearFlag_TransferComplete
    fm33lc0xx_fl_flash.o(i.FL_FLASH_Read_Dma) refers to fm33lc0xx_fl_flash.o(i.FL_DMA_EnableChannel) for FL_DMA_EnableChannel
    fm33lc0xx_fl_flash.o(i.FL_FLASH_Read_Dma) refers to fm33lc0xx_fl_flash.o(i.FL_DMA_Enable) for FL_DMA_Enable
    fm33lc0xx_fl_flash.o(i.FL_FLASH_Read_Dma) refers to fm33lc0xx_fl_flash.o(i.FL_DMA_IsActiveFlag_TransferComplete) for FL_DMA_IsActiveFlag_TransferComplete
    fm33lc0xx_fl_flash.o(i.FL_FLASH_SectorErase) refers to fm33lc0xx_fl_flash.o(i.FL_RCC_EnableGroup2BusClock) for FL_RCC_EnableGroup2BusClock
    fm33lc0xx_fl_flash.o(i.FL_FLASH_SectorErase) refers to fm33lc0xx_fl_flash.o(i.FL_FLASH_GetFlashLockStatus) for FL_FLASH_GetFlashLockStatus
    fm33lc0xx_fl_flash.o(i.FL_FLASH_SectorErase) refers to fm33lc0xx_fl_flash.o(i.FL_RCC_EnableGroup2OperationClock) for FL_RCC_EnableGroup2OperationClock
    fm33lc0xx_fl_flash.o(i.FL_FLASH_SectorErase) refers to fm33lc0xx_fl_flash.o(i.FL_FLASH_SetFlashEraseType) for FL_FLASH_SetFlashEraseType
    fm33lc0xx_fl_flash.o(i.FL_FLASH_SectorErase) refers to fm33lc0xx_fl_flash.o(i.FL_FLASH_EnableErase) for FL_FLASH_EnableErase
    fm33lc0xx_fl_flash.o(i.FL_FLASH_SectorErase) refers to fm33lc0xx_fl_flash.o(i.__get_PRIMASK) for __get_PRIMASK
    fm33lc0xx_fl_flash.o(i.FL_FLASH_SectorErase) refers to fm33lc0xx_fl_flash.o(i.FL_FLASH_UnlockFlash) for FL_FLASH_UnlockFlash
    fm33lc0xx_fl_flash.o(i.FL_FLASH_SectorErase) refers to fm33lc0xx_fl_flash.o(i.__set_PRIMASK) for __set_PRIMASK
    fm33lc0xx_fl_flash.o(i.FL_FLASH_SectorErase) refers to fm33lc0xx_fl_flash.o(i.FL_FLASH_ClearFlag_EraseComplete) for FL_FLASH_ClearFlag_EraseComplete
    fm33lc0xx_fl_flash.o(i.FL_FLASH_SectorErase) refers to fm33lc0xx_fl_flash.o(i.FL_FLASH_IsActiveFlag_ClockError) for FL_FLASH_IsActiveFlag_ClockError
    fm33lc0xx_fl_flash.o(i.FL_FLASH_SectorErase) refers to fm33lc0xx_fl_flash.o(i.FL_FLASH_IsActiveFlag_KeyError) for FL_FLASH_IsActiveFlag_KeyError
    fm33lc0xx_fl_flash.o(i.FL_FLASH_SectorErase) refers to fm33lc0xx_fl_flash.o(i.FL_FLASH_IsActiveFlag_AuthenticationError) for FL_FLASH_IsActiveFlag_AuthenticationError
    fm33lc0xx_fl_flash.o(i.FL_FLASH_SectorErase) refers to fm33lc0xx_fl_flash.o(i.FL_FLASH_IsActiveFlag_EraseComplete) for FL_FLASH_IsActiveFlag_EraseComplete
    fm33lc0xx_fl_flash.o(i.FL_FLASH_SectorErase) refers to fm33lc0xx_fl_flash.o(i.FL_FLASH_LockFlash) for FL_FLASH_LockFlash
    fm33lc0xx_fl_flash.o(i.FL_FLASH_SectorErase) refers to fm33lc0xx_fl_flash.o(i.FL_RCC_DisableGroup2OperationClock) for FL_RCC_DisableGroup2OperationClock
    fm33lc0xx_fl_flash.o(i.FL_FLASH_Write_Dma) refers to rt_memclr.o(.text) for __aeabi_memclr4
    fm33lc0xx_fl_flash.o(i.FL_FLASH_Write_Dma) refers to fm33lc0xx_fl_flash.o(i.FL_RCC_EnableGroup2BusClock) for FL_RCC_EnableGroup2BusClock
    fm33lc0xx_fl_flash.o(i.FL_FLASH_Write_Dma) refers to fm33lc0xx_fl_flash.o(i.FL_DMA_Disable) for FL_DMA_Disable
    fm33lc0xx_fl_flash.o(i.FL_FLASH_Write_Dma) refers to fm33lc0xx_fl_flash.o(i.FL_RCC_EnableGroup2OperationClock) for FL_RCC_EnableGroup2OperationClock
    fm33lc0xx_fl_flash.o(i.FL_FLASH_Write_Dma) refers to fm33lc0xx_fl_flash.o(i.FL_FLASH_EnableProgram) for FL_FLASH_EnableProgram
    fm33lc0xx_fl_flash.o(i.FL_FLASH_Write_Dma) refers to fm33lc0xx_fl_flash.o(i.FL_FLASH_GetFlashLockStatus) for FL_FLASH_GetFlashLockStatus
    fm33lc0xx_fl_flash.o(i.FL_FLASH_Write_Dma) refers to fm33lc0xx_fl_flash.o(i.__get_PRIMASK) for __get_PRIMASK
    fm33lc0xx_fl_flash.o(i.FL_FLASH_Write_Dma) refers to fm33lc0xx_fl_flash.o(i.FL_FLASH_UnlockFlash) for FL_FLASH_UnlockFlash
    fm33lc0xx_fl_flash.o(i.FL_FLASH_Write_Dma) refers to fm33lc0xx_fl_flash.o(i.__set_PRIMASK) for __set_PRIMASK
    fm33lc0xx_fl_flash.o(i.FL_FLASH_Write_Dma) refers to fm33lc0xx_fl_dma.o(i.FL_DMA_Init) for FL_DMA_Init
    fm33lc0xx_fl_flash.o(i.FL_FLASH_Write_Dma) refers to fm33lc0xx_fl_flash.o(i.FL_DMA_WriteFlashAddress) for FL_DMA_WriteFlashAddress
    fm33lc0xx_fl_flash.o(i.FL_FLASH_Write_Dma) refers to fm33lc0xx_fl_flash.o(i.FL_DMA_WriteMemoryAddress) for FL_DMA_WriteMemoryAddress
    fm33lc0xx_fl_flash.o(i.FL_FLASH_Write_Dma) refers to fm33lc0xx_fl_flash.o(i.FL_DMA_WriteTransmissionSize) for FL_DMA_WriteTransmissionSize
    fm33lc0xx_fl_flash.o(i.FL_FLASH_Write_Dma) refers to fm33lc0xx_fl_flash.o(i.FL_DMA_ClearFlag_TransferComplete) for FL_DMA_ClearFlag_TransferComplete
    fm33lc0xx_fl_flash.o(i.FL_FLASH_Write_Dma) refers to fm33lc0xx_fl_flash.o(i.FL_DMA_EnableChannel) for FL_DMA_EnableChannel
    fm33lc0xx_fl_flash.o(i.FL_FLASH_Write_Dma) refers to fm33lc0xx_fl_flash.o(i.FL_DMA_Enable) for FL_DMA_Enable
    fm33lc0xx_fl_flash.o(i.FL_FLASH_Write_Dma) refers to fm33lc0xx_fl_flash.o(i.FL_DMA_IsActiveFlag_TransferComplete) for FL_DMA_IsActiveFlag_TransferComplete
    fm33lc0xx_fl_flash.o(i.FL_FLASH_Write_Dma) refers to fm33lc0xx_fl_flash.o(i.FL_FLASH_LockFlash) for FL_FLASH_LockFlash
    fm33lc0xx_fl_flash.o(i.FL_FLASH_Write_Dma) refers to fm33lc0xx_fl_flash.o(i.FL_RCC_DisableGroup2OperationClock) for FL_RCC_DisableGroup2OperationClock
    fm33lc0xx_fl_gpio.o(i.FL_GPIO_ALLPIN_LPM_MODE) refers to fm33lc0xx_fl_gpio.o(i.FL_GPIO_DeInit) for FL_GPIO_DeInit
    fm33lc0xx_fl_gpio.o(i.FL_GPIO_DeInit) refers to fm33lc0xx_fl_gpio.o(i.FL_GPIO_SetPinMode) for FL_GPIO_SetPinMode
    fm33lc0xx_fl_gpio.o(i.FL_GPIO_DeInit) refers to fm33lc0xx_fl_gpio.o(i.FL_GPIO_DisablePinInput) for FL_GPIO_DisablePinInput
    fm33lc0xx_fl_gpio.o(i.FL_GPIO_DeInit) refers to fm33lc0xx_fl_gpio.o(i.FL_GPIO_DisablePinOpenDrain) for FL_GPIO_DisablePinOpenDrain
    fm33lc0xx_fl_gpio.o(i.FL_GPIO_DeInit) refers to fm33lc0xx_fl_gpio.o(i.FL_GPIO_DisablePinPullup) for FL_GPIO_DisablePinPullup
    fm33lc0xx_fl_gpio.o(i.FL_GPIO_DeInit) refers to fm33lc0xx_fl_gpio.o(i.FL_GPIO_DisablePinAnalogSwitch) for FL_GPIO_DisablePinAnalogSwitch
    fm33lc0xx_fl_gpio.o(i.FL_GPIO_DeInit) refers to fm33lc0xx_fl_gpio.o(i.FL_GPIO_DisablePinRemap) for FL_GPIO_DisablePinRemap
    fm33lc0xx_fl_gpio.o(i.FL_GPIO_Init) refers to fm33lc0xx_fl_gpio.o(i.FL_GPIO_DisablePinInput) for FL_GPIO_DisablePinInput
    fm33lc0xx_fl_gpio.o(i.FL_GPIO_Init) refers to fm33lc0xx_fl_gpio.o(i.FL_GPIO_DisablePinPullup) for FL_GPIO_DisablePinPullup
    fm33lc0xx_fl_gpio.o(i.FL_GPIO_Init) refers to fm33lc0xx_fl_gpio.o(i.FL_GPIO_DisablePinOpenDrain) for FL_GPIO_DisablePinOpenDrain
    fm33lc0xx_fl_gpio.o(i.FL_GPIO_Init) refers to fm33lc0xx_fl_gpio.o(i.FL_GPIO_DisablePinAnalogSwitch) for FL_GPIO_DisablePinAnalogSwitch
    fm33lc0xx_fl_gpio.o(i.FL_GPIO_Init) refers to fm33lc0xx_fl_gpio.o(i.FL_GPIO_DisablePinRemap) for FL_GPIO_DisablePinRemap
    fm33lc0xx_fl_gpio.o(i.FL_GPIO_Init) refers to fm33lc0xx_fl_gpio.o(i.FL_GPIO_SetPinMode) for FL_GPIO_SetPinMode
    fm33lc0xx_fl_gpio.o(i.FL_WKUP_DeInit) refers to fm33lc0xx_fl_gpio.o(i.FL_GPIO_EnableWakeup) for FL_GPIO_EnableWakeup
    fm33lc0xx_fl_gpio.o(i.FL_WKUP_Init) refers to fm33lc0xx_fl_gpio.o(i.FL_GPIO_EnableWakeup) for FL_GPIO_EnableWakeup
    fm33lc0xx_fl_gptim.o(i.FL_GPTIM_DeInit) refers to fm33lc0xx_fl_gptim.o(i.FL_RCC_EnableResetAPB1Peripheral) for FL_RCC_EnableResetAPB1Peripheral
    fm33lc0xx_fl_gptim.o(i.FL_GPTIM_DeInit) refers to fm33lc0xx_fl_gptim.o(i.FL_RCC_DisableResetAPB1Peripheral) for FL_RCC_DisableResetAPB1Peripheral
    fm33lc0xx_fl_gptim.o(i.FL_GPTIM_DeInit) refers to fm33lc0xx_fl_gptim.o(i.FL_RCC_DisableGroup4BusClock) for FL_RCC_DisableGroup4BusClock
    fm33lc0xx_fl_gptim.o(i.FL_GPTIM_ETR_Init) refers to fm33lc0xx_fl_gptim.o(i.FL_RCC_EnableGroup4BusClock) for FL_RCC_EnableGroup4BusClock
    fm33lc0xx_fl_gptim.o(i.FL_GPTIM_ETR_Init) refers to fm33lc0xx_fl_gptim.o(i.FL_GPTIM_GenerateUpdateEvent) for FL_GPTIM_GenerateUpdateEvent
    fm33lc0xx_fl_gptim.o(i.FL_GPTIM_IC_Init) refers to fm33lc0xx_fl_gptim.o(i.FL_RCC_EnableGroup4BusClock) for FL_RCC_EnableGroup4BusClock
    fm33lc0xx_fl_gptim.o(i.FL_GPTIM_IC_Init) refers to fm33lc0xx_fl_gptim.o(i.FL_GPTIM_CC_SetChannelMode) for FL_GPTIM_CC_SetChannelMode
    fm33lc0xx_fl_gptim.o(i.FL_GPTIM_IC_Init) refers to fm33lc0xx_fl_gptim.o(i.FL_GPTIM_GenerateUpdateEvent) for FL_GPTIM_GenerateUpdateEvent
    fm33lc0xx_fl_gptim.o(i.FL_GPTIM_Init) refers to fm33lc0xx_fl_gptim.o(i.FL_RCC_EnableGroup4BusClock) for FL_RCC_EnableGroup4BusClock
    fm33lc0xx_fl_gptim.o(i.FL_GPTIM_Init) refers to fm33lc0xx_fl_gptim.o(i.FL_GPTIM_SetCounterAlignedMode) for FL_GPTIM_SetCounterAlignedMode
    fm33lc0xx_fl_gptim.o(i.FL_GPTIM_Init) refers to fm33lc0xx_fl_gptim.o(i.FL_GPTIM_GenerateUpdateEvent) for FL_GPTIM_GenerateUpdateEvent
    fm33lc0xx_fl_gptim.o(i.FL_GPTIM_OC_Init) refers to fm33lc0xx_fl_gptim.o(i.FL_GPTIM_CC_SetChannelMode) for FL_GPTIM_CC_SetChannelMode
    fm33lc0xx_fl_gptim.o(i.FL_GPTIM_OC_Init) refers to fm33lc0xx_fl_gptim.o(i.OCConfig) for OCConfig
    fm33lc0xx_fl_gptim.o(i.FL_GPTIM_OC_Init) refers to fm33lc0xx_fl_gptim.o(i.FL_GPTIM_GenerateUpdateEvent) for FL_GPTIM_GenerateUpdateEvent
    fm33lc0xx_fl_gptim.o(i.FL_GPTIM_SlaveMode_Init) refers to fm33lc0xx_fl_gptim.o(i.FL_RCC_EnableGroup4BusClock) for FL_RCC_EnableGroup4BusClock
    fm33lc0xx_fl_gptim.o(i.FL_GPTIM_SlaveMode_Init) refers to fm33lc0xx_fl_gptim.o(i.FL_GPTIM_SetSlaveMode) for FL_GPTIM_SetSlaveMode
    fm33lc0xx_fl_gptim.o(i.FL_GPTIM_SlaveMode_Init) refers to fm33lc0xx_fl_gptim.o(i.FL_GPTIM_GenerateUpdateEvent) for FL_GPTIM_GenerateUpdateEvent
    fm33lc0xx_fl_i2c.o(i.FL_I2C_MasterMode_Init) refers to fm33lc0xx_fl_i2c.o(i.FL_RCC_EnableGroup3BusClock) for FL_RCC_EnableGroup3BusClock
    fm33lc0xx_fl_i2c.o(i.FL_I2C_MasterMode_Init) refers to fm33lc0xx_fl_rcc.o(i.FL_RCC_GetAPB1ClockFreq) for FL_RCC_GetAPB1ClockFreq
    fm33lc0xx_fl_i2c.o(i.FL_I2C_MasterMode_Init) refers to fm33lc0xx_fl_rcc.o(i.FL_RCC_GetRCHFClockFreq) for FL_RCC_GetRCHFClockFreq
    fm33lc0xx_fl_i2c.o(i.FL_I2C_MasterMode_Init) refers to fm33lc0xx_fl_rcc.o(i.FL_RCC_GetSystemClockFreq) for FL_RCC_GetSystemClockFreq
    fm33lc0xx_fl_i2c.o(i.FL_I2C_MasterMode_Init) refers to fm33lc0xx_fl_rcc.o(i.FL_RCC_GetRC4MClockFreq) for FL_RCC_GetRC4MClockFreq
    fm33lc0xx_fl_i2c.o(i.FL_I2C_MasterMode_Init) refers to aeabi_sdiv.o(.text) for __aeabi_uidivmod
    fm33lc0xx_fl_i2c.o(i.FL_I2C_MasterMode_Init) refers to dflti.o(.text) for __aeabi_ui2d
    fm33lc0xx_fl_i2c.o(i.FL_I2C_MasterMode_Init) refers to ddiv.o(.text) for __aeabi_ddiv
    fm33lc0xx_fl_i2c.o(i.FL_I2C_MasterMode_Init) refers to daddsub.o(.text) for __aeabi_dadd
    fm33lc0xx_fl_i2c.o(i.FL_I2C_MasterMode_Init) refers to dfixui.o(.text) for __aeabi_d2uiz
    fm33lc0xx_fl_i2c.o(i.FL_I2C_SlaveMode_Init) refers to fm33lc0xx_fl_i2c.o(i.FL_RCC_EnableGroup3BusClock) for FL_RCC_EnableGroup3BusClock
    fm33lc0xx_fl_i2c.o(i.FL_I2C_SlaveMode_Init) refers to fm33lc0xx_fl_i2c.o(i.FL_I2C_Slave_WriteSlaveAddress) for FL_I2C_Slave_WriteSlaveAddress
    fm33lc0xx_fl_lptim32.o(i.FL_LPTIM32_IC_Init) refers to fm33lc0xx_fl_lptim32.o(i.FL_LPTIM32_SetChannelMode) for FL_LPTIM32_SetChannelMode
    fm33lc0xx_fl_lptim32.o(i.FL_LPTIM32_Init) refers to fm33lc0xx_fl_lptim32.o(i.FL_LPTIM32_SetETRTriggerEdge) for FL_LPTIM32_SetETRTriggerEdge
    fm33lc0xx_fl_lptim32.o(i.FL_LPTIM32_OC_Init) refers to fm33lc0xx_fl_lptim32.o(i.FL_LPTIM32_SetChannelMode) for FL_LPTIM32_SetChannelMode
    fm33lc0xx_fl_lpuart.o(i.FL_LPUART_DeInit) refers to fm33lc0xx_fl_lpuart.o(i.FL_RCC_IsEnabledGroup3BusClock) for FL_RCC_IsEnabledGroup3BusClock
    fm33lc0xx_fl_lpuart.o(i.FL_LPUART_DeInit) refers to fm33lc0xx_fl_lpuart.o(i.FL_RCC_DisableGroup1OperationClock) for FL_RCC_DisableGroup1OperationClock
    fm33lc0xx_fl_lpuart.o(i.FL_LPUART_Init) refers to fm33lc0xx_fl_lpuart.o(i.FL_RCC_EnableGroup3BusClock) for FL_RCC_EnableGroup3BusClock
    fm33lc0xx_fl_lpuart.o(i.FL_LPUART_Init) refers to fm33lc0xx_fl_lpuart.o(i.FL_RCC_EnableGroup1OperationClock) for FL_RCC_EnableGroup1OperationClock
    fm33lc0xx_fl_lpuart.o(i.FL_LPUART_Init) refers to fm33lc0xx_fl_lpuart.o(i.__ARM_common_switch8) for __ARM_common_switch8
    fm33lc0xx_fl_rcc.o(i.FL_RCC_GetAHBClockFreq) refers to fm33lc0xx_fl_rcc.o(i.FL_RCC_GetSystemClockFreq) for FL_RCC_GetSystemClockFreq
    fm33lc0xx_fl_rcc.o(i.FL_RCC_GetAPB1ClockFreq) refers to fm33lc0xx_fl_rcc.o(i.FL_RCC_GetAHBClockFreq) for FL_RCC_GetAHBClockFreq
    fm33lc0xx_fl_rcc.o(i.FL_RCC_GetAPB2ClockFreq) refers to fm33lc0xx_fl_rcc.o(i.FL_RCC_GetAHBClockFreq) for FL_RCC_GetAHBClockFreq
    fm33lc0xx_fl_rcc.o(i.FL_RCC_GetPLLClockFreq) refers to fm33lc0xx_fl_rcc.o(i.FL_RCC_GetRCHFClockFreq) for FL_RCC_GetRCHFClockFreq
    fm33lc0xx_fl_rcc.o(i.FL_RCC_GetPLLClockFreq) refers to fm33lc0xx_fl_lpuart.o(i.__ARM_common_switch8) for __ARM_common_switch8
    fm33lc0xx_fl_rcc.o(i.FL_RCC_GetPLLClockFreq) refers to aeabi_sdiv.o(.text) for __aeabi_uidivmod
    fm33lc0xx_fl_rcc.o(i.FL_RCC_GetSystemClockFreq) refers to fm33lc0xx_fl_lpuart.o(i.__ARM_common_switch8) for __ARM_common_switch8
    fm33lc0xx_fl_rcc.o(i.FL_RCC_GetSystemClockFreq) refers to fm33lc0xx_fl_rcc.o(i.FL_RCC_GetRCHFClockFreq) for FL_RCC_GetRCHFClockFreq
    fm33lc0xx_fl_rcc.o(i.FL_RCC_GetSystemClockFreq) refers to fm33lc0xx_fl_rcc.o(i.FL_RCC_GetPLLClockFreq) for FL_RCC_GetPLLClockFreq
    fm33lc0xx_fl_rcc.o(i.FL_RCC_GetSystemClockFreq) refers to fm33lc0xx_fl_rcc.o(i.FL_RCC_GetRC4MClockFreq) for FL_RCC_GetRC4MClockFreq
    fm33lc0xx_fl_rcc.o(i.FL_RCC_GetSystemClockFreq) refers to fm33lc0xx_fl_rcc.o(i.FL_RCC_GetUSBClockFreqToSysclk) for FL_RCC_GetUSBClockFreqToSysclk
    fm33lc0xx_fl_rng.o(i.GetCrc32) refers to fm33lc0xx_fl_rng.o(i.FL_RNG_ClearFlag_CRCComplete) for FL_RNG_ClearFlag_CRCComplete
    fm33lc0xx_fl_rng.o(i.GetCrc32) refers to fm33lc0xx_fl_rng.o(i.FL_RNG_Disable) for FL_RNG_Disable
    fm33lc0xx_fl_rng.o(i.GetRandomNumber) refers to fm33lc0xx_fl_rng.o(i.FL_RNG_Disable) for FL_RNG_Disable
    fm33lc0xx_fl_rtc.o(i.FL_RTC_Init) refers to fm33lc0xx_fl_rtc.o(i.FL_RTC_ConfigTime) for FL_RTC_ConfigTime
    fm33lc0xx_fl_spi.o(i.FL_SPI_DeInit) refers to fm33lc0xx_fl_spi.o(i.FL_RCC_DisableGroup3BusClock) for FL_RCC_DisableGroup3BusClock
    fm33lc0xx_fl_spi.o(i.FL_SPI_Init) refers to fm33lc0xx_fl_spi.o(i.FL_RCC_EnableGroup3BusClock) for FL_RCC_EnableGroup3BusClock
    fm33lc0xx_fl_u7816.o(i.FL_U7816_Init) refers to fm33lc0xx_fl_rcc.o(i.FL_RCC_GetAPB1ClockFreq) for FL_RCC_GetAPB1ClockFreq
    fm33lc0xx_fl_u7816.o(i.FL_U7816_Init) refers to aeabi_sdiv.o(.text) for __aeabi_uidivmod
    fm33lc0xx_fl_uart.o(i.FL_UART_DeInit) refers to fm33lc0xx_fl_uart.o(i.FL_RCC_EnableResetAPB2Peripheral) for FL_RCC_EnableResetAPB2Peripheral
    fm33lc0xx_fl_uart.o(i.FL_UART_DeInit) refers to fm33lc0xx_fl_uart.o(i.FL_RCC_DisableResetAPB2Peripheral) for FL_RCC_DisableResetAPB2Peripheral
    fm33lc0xx_fl_uart.o(i.FL_UART_DeInit) refers to fm33lc0xx_fl_uart.o(i.FL_RCC_DisableGroup3BusClock) for FL_RCC_DisableGroup3BusClock
    fm33lc0xx_fl_uart.o(i.FL_UART_DeInit) refers to fm33lc0xx_fl_uart.o(i.FL_RCC_DisableGroup1OperationClock) for FL_RCC_DisableGroup1OperationClock
    fm33lc0xx_fl_uart.o(i.FL_UART_DeInit) refers to fm33lc0xx_fl_uart.o(i.FL_RCC_EnableResetAPB1Peripheral) for FL_RCC_EnableResetAPB1Peripheral
    fm33lc0xx_fl_uart.o(i.FL_UART_InfraRed_Init) refers to fm33lc0xx_fl_uart.o(i.FL_RCC_EnableGroup3BusClock) for FL_RCC_EnableGroup3BusClock
    fm33lc0xx_fl_uart.o(i.FL_UART_InfraRed_Init) refers to dflti.o(.text) for __aeabi_ui2d
    fm33lc0xx_fl_uart.o(i.FL_UART_InfraRed_Init) refers to fm33lc0xx_fl_rcc.o(i.FL_RCC_GetAPB1ClockFreq) for FL_RCC_GetAPB1ClockFreq
    fm33lc0xx_fl_uart.o(i.FL_UART_InfraRed_Init) refers to dmul.o(.text) for __aeabi_dmul
    fm33lc0xx_fl_uart.o(i.FL_UART_InfraRed_Init) refers to ddiv.o(.text) for __aeabi_ddiv
    fm33lc0xx_fl_uart.o(i.FL_UART_InfraRed_Init) refers to daddsub.o(.text) for __aeabi_dsub
    fm33lc0xx_fl_uart.o(i.FL_UART_InfraRed_Init) refers to dfixui.o(.text) for __aeabi_d2uiz
    fm33lc0xx_fl_uart.o(i.FL_UART_InfraRed_Init) refers to fflti.o(.text) for __aeabi_ui2f
    fm33lc0xx_fl_uart.o(i.FL_UART_InfraRed_Init) refers to fdiv.o(.text) for __aeabi_fdiv
    fm33lc0xx_fl_uart.o(i.FL_UART_InfraRed_Init) refers to f2d.o(.text) for __aeabi_f2d
    fm33lc0xx_fl_uart.o(i.FL_UART_InfraRed_Init) refers to flef.o(x$fpl$fleqf) for __aeabi_cfcmple
    fm33lc0xx_fl_uart.o(i.FL_UART_Init) refers to fm33lc0xx_fl_rcc.o(i.FL_RCC_GetAPB1ClockFreq) for FL_RCC_GetAPB1ClockFreq
    fm33lc0xx_fl_uart.o(i.FL_UART_Init) refers to fm33lc0xx_fl_rcc.o(i.FL_RCC_GetRCHFClockFreq) for FL_RCC_GetRCHFClockFreq
    fm33lc0xx_fl_uart.o(i.FL_UART_Init) refers to fm33lc0xx_fl_rcc.o(i.FL_RCC_GetSystemClockFreq) for FL_RCC_GetSystemClockFreq
    fm33lc0xx_fl_uart.o(i.FL_UART_Init) refers to fm33lc0xx_fl_rcc.o(i.FL_RCC_GetRC4MClockFreq) for FL_RCC_GetRC4MClockFreq
    fm33lc0xx_fl_uart.o(i.FL_UART_Init) refers to aeabi_sdiv.o(.text) for __aeabi_uidivmod
    fm33lc0xx_fl_uart.o(i.FL_UART_Init) refers to fm33lc0xx_fl_uart.o(i.FL_RCC_EnableGroup3BusClock) for FL_RCC_EnableGroup3BusClock
    fm33lc0xx_fl_uart.o(i.FL_UART_Init) refers to fm33lc0xx_fl_uart.o(i.FL_RCC_EnableGroup1OperationClock) for FL_RCC_EnableGroup1OperationClock
    fm33lc0xx_fl_uart.o(i.FL_UART_Init) refers to fm33lc0xx_fl_rcc.o(i.FL_RCC_GetAPB2ClockFreq) for FL_RCC_GetAPB2ClockFreq
    queue.o(i.prvCopyDataFromQueue) refers to rt_memcpy.o(.text) for __aeabi_memcpy
    queue.o(i.prvCopyDataToQueue) refers to tasks.o(i.xTaskPriorityDisinherit) for xTaskPriorityDisinherit
    queue.o(i.prvCopyDataToQueue) refers to rt_memcpy.o(.text) for __aeabi_memcpy
    queue.o(i.prvInitialiseMutex) refers to queue.o(i.xQueueGenericSend) for xQueueGenericSend
    queue.o(i.prvInitialiseNewQueue) refers to queue.o(i.xQueueGenericReset) for xQueueGenericReset
    queue.o(i.prvIsQueueEmpty) refers to port.o(i.vPortEnterCritical) for vPortEnterCritical
    queue.o(i.prvIsQueueEmpty) refers to port.o(i.vPortExitCritical) for vPortExitCritical
    queue.o(i.prvIsQueueFull) refers to port.o(i.vPortEnterCritical) for vPortEnterCritical
    queue.o(i.prvIsQueueFull) refers to port.o(i.vPortExitCritical) for vPortExitCritical
    queue.o(i.prvUnlockQueue) refers to port.o(i.vPortEnterCritical) for vPortEnterCritical
    queue.o(i.prvUnlockQueue) refers to tasks.o(i.xTaskRemoveFromEventList) for xTaskRemoveFromEventList
    queue.o(i.prvUnlockQueue) refers to tasks.o(i.vTaskMissedYield) for vTaskMissedYield
    queue.o(i.prvUnlockQueue) refers to port.o(i.vPortExitCritical) for vPortExitCritical
    queue.o(i.uxQueueMessagesWaiting) refers to port.o(i.vPortEnterCritical) for vPortEnterCritical
    queue.o(i.uxQueueMessagesWaiting) refers to port.o(i.vPortExitCritical) for vPortExitCritical
    queue.o(i.uxQueueSpacesAvailable) refers to port.o(i.vPortEnterCritical) for vPortEnterCritical
    queue.o(i.uxQueueSpacesAvailable) refers to port.o(i.vPortExitCritical) for vPortExitCritical
    queue.o(i.vQueueDelete) refers to heap_4.o(i.vPortFree) for vPortFree
    queue.o(i.xQueueCreateCountingSemaphore) refers to queue.o(i.xQueueGenericCreate) for xQueueGenericCreate
    queue.o(i.xQueueCreateMutex) refers to queue.o(i.xQueueGenericCreate) for xQueueGenericCreate
    queue.o(i.xQueueCreateMutex) refers to queue.o(i.prvInitialiseMutex) for prvInitialiseMutex
    queue.o(i.xQueueGenericCreate) refers to heap_4.o(i.pvPortMalloc) for pvPortMalloc
    queue.o(i.xQueueGenericCreate) refers to queue.o(i.prvInitialiseNewQueue) for prvInitialiseNewQueue
    queue.o(i.xQueueGenericReset) refers to port.o(i.vPortEnterCritical) for vPortEnterCritical
    queue.o(i.xQueueGenericReset) refers to tasks.o(i.xTaskRemoveFromEventList) for xTaskRemoveFromEventList
    queue.o(i.xQueueGenericReset) refers to port.o(i.vPortYield) for vPortYield
    queue.o(i.xQueueGenericReset) refers to list.o(i.vListInitialise) for vListInitialise
    queue.o(i.xQueueGenericReset) refers to port.o(i.vPortExitCritical) for vPortExitCritical
    queue.o(i.xQueueGenericSend) refers to port.o(i.vPortEnterCritical) for vPortEnterCritical
    queue.o(i.xQueueGenericSend) refers to queue.o(i.prvCopyDataToQueue) for prvCopyDataToQueue
    queue.o(i.xQueueGenericSend) refers to tasks.o(i.xTaskRemoveFromEventList) for xTaskRemoveFromEventList
    queue.o(i.xQueueGenericSend) refers to port.o(i.vPortYield) for vPortYield
    queue.o(i.xQueueGenericSend) refers to port.o(i.vPortExitCritical) for vPortExitCritical
    queue.o(i.xQueueGenericSend) refers to tasks.o(i.vTaskInternalSetTimeOutState) for vTaskInternalSetTimeOutState
    queue.o(i.xQueueGenericSend) refers to tasks.o(i.vTaskSuspendAll) for vTaskSuspendAll
    queue.o(i.xQueueGenericSend) refers to tasks.o(i.xTaskCheckForTimeOut) for xTaskCheckForTimeOut
    queue.o(i.xQueueGenericSend) refers to queue.o(i.prvIsQueueFull) for prvIsQueueFull
    queue.o(i.xQueueGenericSend) refers to tasks.o(i.vTaskPlaceOnEventList) for vTaskPlaceOnEventList
    queue.o(i.xQueueGenericSend) refers to queue.o(i.prvUnlockQueue) for prvUnlockQueue
    queue.o(i.xQueueGenericSend) refers to tasks.o(i.xTaskResumeAll) for xTaskResumeAll
    queue.o(i.xQueueGenericSendFromISR) refers to port.o(.emb_text) for ulSetInterruptMaskFromISR
    queue.o(i.xQueueGenericSendFromISR) refers to queue.o(i.prvCopyDataToQueue) for prvCopyDataToQueue
    queue.o(i.xQueueGenericSendFromISR) refers to tasks.o(i.xTaskRemoveFromEventList) for xTaskRemoveFromEventList
    queue.o(i.xQueueGiveFromISR) refers to port.o(.emb_text) for ulSetInterruptMaskFromISR
    queue.o(i.xQueueGiveFromISR) refers to tasks.o(i.xTaskRemoveFromEventList) for xTaskRemoveFromEventList
    queue.o(i.xQueuePeek) refers to port.o(i.vPortEnterCritical) for vPortEnterCritical
    queue.o(i.xQueuePeek) refers to queue.o(i.prvCopyDataFromQueue) for prvCopyDataFromQueue
    queue.o(i.xQueuePeek) refers to tasks.o(i.xTaskRemoveFromEventList) for xTaskRemoveFromEventList
    queue.o(i.xQueuePeek) refers to port.o(i.vPortYield) for vPortYield
    queue.o(i.xQueuePeek) refers to port.o(i.vPortExitCritical) for vPortExitCritical
    queue.o(i.xQueuePeek) refers to tasks.o(i.vTaskInternalSetTimeOutState) for vTaskInternalSetTimeOutState
    queue.o(i.xQueuePeek) refers to tasks.o(i.vTaskSuspendAll) for vTaskSuspendAll
    queue.o(i.xQueuePeek) refers to tasks.o(i.xTaskCheckForTimeOut) for xTaskCheckForTimeOut
    queue.o(i.xQueuePeek) refers to queue.o(i.prvIsQueueEmpty) for prvIsQueueEmpty
    queue.o(i.xQueuePeek) refers to tasks.o(i.vTaskPlaceOnEventList) for vTaskPlaceOnEventList
    queue.o(i.xQueuePeek) refers to queue.o(i.prvUnlockQueue) for prvUnlockQueue
    queue.o(i.xQueuePeek) refers to tasks.o(i.xTaskResumeAll) for xTaskResumeAll
    queue.o(i.xQueuePeekFromISR) refers to port.o(.emb_text) for ulSetInterruptMaskFromISR
    queue.o(i.xQueuePeekFromISR) refers to queue.o(i.prvCopyDataFromQueue) for prvCopyDataFromQueue
    queue.o(i.xQueueReceive) refers to port.o(i.vPortEnterCritical) for vPortEnterCritical
    queue.o(i.xQueueReceive) refers to queue.o(i.prvCopyDataFromQueue) for prvCopyDataFromQueue
    queue.o(i.xQueueReceive) refers to tasks.o(i.xTaskRemoveFromEventList) for xTaskRemoveFromEventList
    queue.o(i.xQueueReceive) refers to port.o(i.vPortYield) for vPortYield
    queue.o(i.xQueueReceive) refers to port.o(i.vPortExitCritical) for vPortExitCritical
    queue.o(i.xQueueReceive) refers to tasks.o(i.vTaskInternalSetTimeOutState) for vTaskInternalSetTimeOutState
    queue.o(i.xQueueReceive) refers to tasks.o(i.vTaskSuspendAll) for vTaskSuspendAll
    queue.o(i.xQueueReceive) refers to tasks.o(i.xTaskCheckForTimeOut) for xTaskCheckForTimeOut
    queue.o(i.xQueueReceive) refers to queue.o(i.prvIsQueueEmpty) for prvIsQueueEmpty
    queue.o(i.xQueueReceive) refers to tasks.o(i.vTaskPlaceOnEventList) for vTaskPlaceOnEventList
    queue.o(i.xQueueReceive) refers to queue.o(i.prvUnlockQueue) for prvUnlockQueue
    queue.o(i.xQueueReceive) refers to tasks.o(i.xTaskResumeAll) for xTaskResumeAll
    queue.o(i.xQueueReceiveFromISR) refers to port.o(.emb_text) for ulSetInterruptMaskFromISR
    queue.o(i.xQueueReceiveFromISR) refers to queue.o(i.prvCopyDataFromQueue) for prvCopyDataFromQueue
    queue.o(i.xQueueReceiveFromISR) refers to tasks.o(i.xTaskRemoveFromEventList) for xTaskRemoveFromEventList
    queue.o(i.xQueueSemaphoreTake) refers to port.o(i.vPortEnterCritical) for vPortEnterCritical
    queue.o(i.xQueueSemaphoreTake) refers to tasks.o(i.pvTaskIncrementMutexHeldCount) for pvTaskIncrementMutexHeldCount
    queue.o(i.xQueueSemaphoreTake) refers to tasks.o(i.xTaskRemoveFromEventList) for xTaskRemoveFromEventList
    queue.o(i.xQueueSemaphoreTake) refers to port.o(i.vPortYield) for vPortYield
    queue.o(i.xQueueSemaphoreTake) refers to port.o(i.vPortExitCritical) for vPortExitCritical
    queue.o(i.xQueueSemaphoreTake) refers to tasks.o(i.vTaskInternalSetTimeOutState) for vTaskInternalSetTimeOutState
    queue.o(i.xQueueSemaphoreTake) refers to tasks.o(i.vTaskSuspendAll) for vTaskSuspendAll
    queue.o(i.xQueueSemaphoreTake) refers to tasks.o(i.xTaskCheckForTimeOut) for xTaskCheckForTimeOut
    queue.o(i.xQueueSemaphoreTake) refers to queue.o(i.prvIsQueueEmpty) for prvIsQueueEmpty
    queue.o(i.xQueueSemaphoreTake) refers to tasks.o(i.xTaskPriorityInherit) for xTaskPriorityInherit
    queue.o(i.xQueueSemaphoreTake) refers to tasks.o(i.vTaskPlaceOnEventList) for vTaskPlaceOnEventList
    queue.o(i.xQueueSemaphoreTake) refers to queue.o(i.prvUnlockQueue) for prvUnlockQueue
    queue.o(i.xQueueSemaphoreTake) refers to tasks.o(i.xTaskResumeAll) for xTaskResumeAll
    queue.o(i.xQueueSemaphoreTake) refers to queue.o(i.prvGetDisinheritPriorityAfterTimeout) for prvGetDisinheritPriorityAfterTimeout
    queue.o(i.xQueueSemaphoreTake) refers to tasks.o(i.vTaskPriorityDisinheritAfterTimeout) for vTaskPriorityDisinheritAfterTimeout
    tasks.o(i.eTaskGetState) refers to port.o(i.vPortEnterCritical) for vPortEnterCritical
    tasks.o(i.eTaskGetState) refers to port.o(i.vPortExitCritical) for vPortExitCritical
    tasks.o(i.eTaskGetState) refers to tasks.o(.data) for pxCurrentTCB
    tasks.o(i.eTaskGetState) refers to tasks.o(.bss) for xSuspendedTaskList
    tasks.o(i.pcTaskGetName) refers to tasks.o(.data) for pxCurrentTCB
    tasks.o(i.prvAddCurrentTaskToDelayedList) refers to list.o(i.uxListRemove) for uxListRemove
    tasks.o(i.prvAddCurrentTaskToDelayedList) refers to list.o(i.vListInsertEnd) for vListInsertEnd
    tasks.o(i.prvAddCurrentTaskToDelayedList) refers to list.o(i.vListInsert) for vListInsert
    tasks.o(i.prvAddCurrentTaskToDelayedList) refers to tasks.o(.data) for xTickCount
    tasks.o(i.prvAddCurrentTaskToDelayedList) refers to tasks.o(.bss) for xSuspendedTaskList
    tasks.o(i.prvAddNewTaskToReadyList) refers to port.o(i.vPortEnterCritical) for vPortEnterCritical
    tasks.o(i.prvAddNewTaskToReadyList) refers to tasks.o(i.prvInitialiseTaskLists) for prvInitialiseTaskLists
    tasks.o(i.prvAddNewTaskToReadyList) refers to list.o(i.vListInsertEnd) for vListInsertEnd
    tasks.o(i.prvAddNewTaskToReadyList) refers to port.o(i.vPortExitCritical) for vPortExitCritical
    tasks.o(i.prvAddNewTaskToReadyList) refers to port.o(i.vPortYield) for vPortYield
    tasks.o(i.prvAddNewTaskToReadyList) refers to tasks.o(.data) for uxCurrentNumberOfTasks
    tasks.o(i.prvAddNewTaskToReadyList) refers to tasks.o(.bss) for pxReadyTasksLists
    tasks.o(i.prvCheckTasksWaitingTermination) refers to port.o(i.vPortEnterCritical) for vPortEnterCritical
    tasks.o(i.prvCheckTasksWaitingTermination) refers to list.o(i.uxListRemove) for uxListRemove
    tasks.o(i.prvCheckTasksWaitingTermination) refers to port.o(i.vPortExitCritical) for vPortExitCritical
    tasks.o(i.prvCheckTasksWaitingTermination) refers to tasks.o(i.prvDeleteTCB) for prvDeleteTCB
    tasks.o(i.prvCheckTasksWaitingTermination) refers to tasks.o(.bss) for xTasksWaitingTermination
    tasks.o(i.prvCheckTasksWaitingTermination) refers to tasks.o(.data) for uxCurrentNumberOfTasks
    tasks.o(i.prvDeleteTCB) refers to heap_4.o(i.vPortFree) for vPortFree
    tasks.o(i.prvIdleTask) refers to tasks.o(i.prvCheckTasksWaitingTermination) for prvCheckTasksWaitingTermination
    tasks.o(i.prvIdleTask) refers to port.o(i.vPortYield) for vPortYield
    tasks.o(i.prvIdleTask) refers to main.o(i.vApplicationIdleHook) for vApplicationIdleHook
    tasks.o(i.prvIdleTask) refers to tasks.o(.bss) for pxReadyTasksLists
    tasks.o(i.prvInitialiseNewTask) refers to aeabi_memset.o(.text) for __aeabi_memset
    tasks.o(i.prvInitialiseNewTask) refers to list.o(i.vListInitialiseItem) for vListInitialiseItem
    tasks.o(i.prvInitialiseNewTask) refers to port.o(i.pxPortInitialiseStack) for pxPortInitialiseStack
    tasks.o(i.prvInitialiseTaskLists) refers to list.o(i.vListInitialise) for vListInitialise
    tasks.o(i.prvInitialiseTaskLists) refers to tasks.o(.bss) for pxReadyTasksLists
    tasks.o(i.prvInitialiseTaskLists) refers to tasks.o(.data) for pxDelayedTaskList
    tasks.o(i.prvListTasksWithinSingleList) refers to tasks.o(i.vTaskGetInfo) for vTaskGetInfo
    tasks.o(i.prvResetNextTaskUnblockTime) refers to tasks.o(.data) for pxDelayedTaskList
    tasks.o(i.prvTaskIsTaskSuspended) refers to tasks.o(.bss) for xSuspendedTaskList
    tasks.o(i.prvWriteNameToBuffer) refers to strcpy.o(.text) for strcpy
    tasks.o(i.prvWriteNameToBuffer) refers to strlen.o(.text) for strlen
    tasks.o(i.pvTaskIncrementMutexHeldCount) refers to tasks.o(.data) for pxCurrentTCB
    tasks.o(i.ulTaskNotifyTake) refers to port.o(i.vPortEnterCritical) for vPortEnterCritical
    tasks.o(i.ulTaskNotifyTake) refers to tasks.o(i.prvAddCurrentTaskToDelayedList) for prvAddCurrentTaskToDelayedList
    tasks.o(i.ulTaskNotifyTake) refers to port.o(i.vPortYield) for vPortYield
    tasks.o(i.ulTaskNotifyTake) refers to port.o(i.vPortExitCritical) for vPortExitCritical
    tasks.o(i.ulTaskNotifyTake) refers to tasks.o(.data) for pxCurrentTCB
    tasks.o(i.uxTaskGetNumberOfTasks) refers to tasks.o(.data) for uxCurrentNumberOfTasks
    tasks.o(i.uxTaskGetSystemState) refers to tasks.o(i.vTaskSuspendAll) for vTaskSuspendAll
    tasks.o(i.uxTaskGetSystemState) refers to tasks.o(i.prvListTasksWithinSingleList) for prvListTasksWithinSingleList
    tasks.o(i.uxTaskGetSystemState) refers to bstim32_timing.o(i.TimeStop) for TimeStop
    tasks.o(i.uxTaskGetSystemState) refers to tasks.o(i.xTaskResumeAll) for xTaskResumeAll
    tasks.o(i.uxTaskGetSystemState) refers to tasks.o(.data) for uxCurrentNumberOfTasks
    tasks.o(i.uxTaskGetSystemState) refers to tasks.o(.bss) for pxReadyTasksLists
    tasks.o(i.uxTaskPriorityGet) refers to port.o(i.vPortEnterCritical) for vPortEnterCritical
    tasks.o(i.uxTaskPriorityGet) refers to port.o(i.vPortExitCritical) for vPortExitCritical
    tasks.o(i.uxTaskPriorityGet) refers to tasks.o(.data) for pxCurrentTCB
    tasks.o(i.uxTaskPriorityGetFromISR) refers to port.o(.emb_text) for ulSetInterruptMaskFromISR
    tasks.o(i.uxTaskPriorityGetFromISR) refers to tasks.o(.data) for pxCurrentTCB
    tasks.o(i.uxTaskResetEventItemValue) refers to tasks.o(.data) for pxCurrentTCB
    tasks.o(i.vTaskDelay) refers to tasks.o(i.vTaskSuspendAll) for vTaskSuspendAll
    tasks.o(i.vTaskDelay) refers to tasks.o(i.prvAddCurrentTaskToDelayedList) for prvAddCurrentTaskToDelayedList
    tasks.o(i.vTaskDelay) refers to tasks.o(i.xTaskResumeAll) for xTaskResumeAll
    tasks.o(i.vTaskDelay) refers to port.o(i.vPortYield) for vPortYield
    tasks.o(i.vTaskDelayUntil) refers to tasks.o(i.vTaskSuspendAll) for vTaskSuspendAll
    tasks.o(i.vTaskDelayUntil) refers to tasks.o(i.prvAddCurrentTaskToDelayedList) for prvAddCurrentTaskToDelayedList
    tasks.o(i.vTaskDelayUntil) refers to tasks.o(i.xTaskResumeAll) for xTaskResumeAll
    tasks.o(i.vTaskDelayUntil) refers to port.o(i.vPortYield) for vPortYield
    tasks.o(i.vTaskDelayUntil) refers to tasks.o(.data) for xTickCount
    tasks.o(i.vTaskDelete) refers to port.o(i.vPortEnterCritical) for vPortEnterCritical
    tasks.o(i.vTaskDelete) refers to list.o(i.uxListRemove) for uxListRemove
    tasks.o(i.vTaskDelete) refers to list.o(i.vListInsertEnd) for vListInsertEnd
    tasks.o(i.vTaskDelete) refers to tasks.o(i.prvDeleteTCB) for prvDeleteTCB
    tasks.o(i.vTaskDelete) refers to tasks.o(i.prvResetNextTaskUnblockTime) for prvResetNextTaskUnblockTime
    tasks.o(i.vTaskDelete) refers to port.o(i.vPortExitCritical) for vPortExitCritical
    tasks.o(i.vTaskDelete) refers to port.o(i.vPortYield) for vPortYield
    tasks.o(i.vTaskDelete) refers to tasks.o(.data) for pxCurrentTCB
    tasks.o(i.vTaskDelete) refers to tasks.o(.bss) for xTasksWaitingTermination
    tasks.o(i.vTaskEndScheduler) refers to port.o(i.vPortEndScheduler) for vPortEndScheduler
    tasks.o(i.vTaskEndScheduler) refers to tasks.o(.data) for xSchedulerRunning
    tasks.o(i.vTaskGetInfo) refers to tasks.o(i.vTaskSuspendAll) for vTaskSuspendAll
    tasks.o(i.vTaskGetInfo) refers to tasks.o(i.xTaskResumeAll) for xTaskResumeAll
    tasks.o(i.vTaskGetInfo) refers to tasks.o(i.eTaskGetState) for eTaskGetState
    tasks.o(i.vTaskGetInfo) refers to tasks.o(i.prvTaskCheckFreeStackSpace) for prvTaskCheckFreeStackSpace
    tasks.o(i.vTaskGetInfo) refers to tasks.o(.data) for pxCurrentTCB
    tasks.o(i.vTaskGetRunTimeStats) refers to _printf_percent.o(.ARM.Collect$$_printf_percent$$00000000) for _printf_percent
    tasks.o(i.vTaskGetRunTimeStats) refers to _printf_u.o(.ARM.Collect$$_printf_percent$$0000000A) for _printf_u
    tasks.o(i.vTaskGetRunTimeStats) refers to _printf_dec.o(.text) for _printf_int_dec
    tasks.o(i.vTaskGetRunTimeStats) refers to heap_4.o(i.pvPortMalloc) for pvPortMalloc
    tasks.o(i.vTaskGetRunTimeStats) refers to tasks.o(i.uxTaskGetSystemState) for uxTaskGetSystemState
    tasks.o(i.vTaskGetRunTimeStats) refers to aeabi_sdiv.o(.text) for __aeabi_uidivmod
    tasks.o(i.vTaskGetRunTimeStats) refers to tasks.o(i.prvWriteNameToBuffer) for prvWriteNameToBuffer
    tasks.o(i.vTaskGetRunTimeStats) refers to noretval__2sprintf.o(.text) for __2sprintf
    tasks.o(i.vTaskGetRunTimeStats) refers to strlen.o(.text) for strlen
    tasks.o(i.vTaskGetRunTimeStats) refers to heap_4.o(i.vPortFree) for vPortFree
    tasks.o(i.vTaskGetRunTimeStats) refers to tasks.o(.data) for uxCurrentNumberOfTasks
    tasks.o(i.vTaskInternalSetTimeOutState) refers to tasks.o(.data) for xNumOfOverflows
    tasks.o(i.vTaskList) refers to _printf_percent.o(.ARM.Collect$$_printf_percent$$00000000) for _printf_percent
    tasks.o(i.vTaskList) refers to _printf_u.o(.ARM.Collect$$_printf_percent$$0000000A) for _printf_u
    tasks.o(i.vTaskList) refers to _printf_c.o(.ARM.Collect$$_printf_percent$$00000013) for _printf_c
    tasks.o(i.vTaskList) refers to _printf_dec.o(.text) for _printf_int_dec
    tasks.o(i.vTaskList) refers to _printf_str.o(.text) for _printf_str
    tasks.o(i.vTaskList) refers to heap_4.o(i.pvPortMalloc) for pvPortMalloc
    tasks.o(i.vTaskList) refers to tasks.o(i.uxTaskGetSystemState) for uxTaskGetSystemState
    tasks.o(i.vTaskList) refers to fm33lc0xx_fl_lpuart.o(i.__ARM_common_switch8) for __ARM_common_switch8
    tasks.o(i.vTaskList) refers to tasks.o(i.prvWriteNameToBuffer) for prvWriteNameToBuffer
    tasks.o(i.vTaskList) refers to noretval__2sprintf.o(.text) for __2sprintf
    tasks.o(i.vTaskList) refers to strlen.o(.text) for strlen
    tasks.o(i.vTaskList) refers to heap_4.o(i.vPortFree) for vPortFree
    tasks.o(i.vTaskList) refers to tasks.o(.data) for uxCurrentNumberOfTasks
    tasks.o(i.vTaskMissedYield) refers to tasks.o(.data) for xYieldPending
    tasks.o(i.vTaskNotifyGiveFromISR) refers to port.o(.emb_text) for ulSetInterruptMaskFromISR
    tasks.o(i.vTaskNotifyGiveFromISR) refers to list.o(i.uxListRemove) for uxListRemove
    tasks.o(i.vTaskNotifyGiveFromISR) refers to list.o(i.vListInsertEnd) for vListInsertEnd
    tasks.o(i.vTaskNotifyGiveFromISR) refers to tasks.o(.data) for uxSchedulerSuspended
    tasks.o(i.vTaskNotifyGiveFromISR) refers to tasks.o(.bss) for pxReadyTasksLists
    tasks.o(i.vTaskPlaceOnEventList) refers to list.o(i.vListInsert) for vListInsert
    tasks.o(i.vTaskPlaceOnEventList) refers to tasks.o(i.prvAddCurrentTaskToDelayedList) for prvAddCurrentTaskToDelayedList
    tasks.o(i.vTaskPlaceOnEventList) refers to tasks.o(.data) for pxCurrentTCB
    tasks.o(i.vTaskPlaceOnUnorderedEventList) refers to list.o(i.vListInsertEnd) for vListInsertEnd
    tasks.o(i.vTaskPlaceOnUnorderedEventList) refers to tasks.o(i.prvAddCurrentTaskToDelayedList) for prvAddCurrentTaskToDelayedList
    tasks.o(i.vTaskPlaceOnUnorderedEventList) refers to tasks.o(.data) for pxCurrentTCB
    tasks.o(i.vTaskPriorityDisinheritAfterTimeout) refers to list.o(i.uxListRemove) for uxListRemove
    tasks.o(i.vTaskPriorityDisinheritAfterTimeout) refers to list.o(i.vListInsertEnd) for vListInsertEnd
    tasks.o(i.vTaskPriorityDisinheritAfterTimeout) refers to tasks.o(.bss) for pxReadyTasksLists
    tasks.o(i.vTaskPriorityDisinheritAfterTimeout) refers to tasks.o(.data) for uxTopReadyPriority
    tasks.o(i.vTaskPrioritySet) refers to port.o(i.vPortEnterCritical) for vPortEnterCritical
    tasks.o(i.vTaskPrioritySet) refers to list.o(i.uxListRemove) for uxListRemove
    tasks.o(i.vTaskPrioritySet) refers to list.o(i.vListInsertEnd) for vListInsertEnd
    tasks.o(i.vTaskPrioritySet) refers to port.o(i.vPortYield) for vPortYield
    tasks.o(i.vTaskPrioritySet) refers to port.o(i.vPortExitCritical) for vPortExitCritical
    tasks.o(i.vTaskPrioritySet) refers to tasks.o(.data) for pxCurrentTCB
    tasks.o(i.vTaskPrioritySet) refers to tasks.o(.bss) for pxReadyTasksLists
    tasks.o(i.vTaskRemoveFromUnorderedEventList) refers to list.o(i.uxListRemove) for uxListRemove
    tasks.o(i.vTaskRemoveFromUnorderedEventList) refers to list.o(i.vListInsertEnd) for vListInsertEnd
    tasks.o(i.vTaskRemoveFromUnorderedEventList) refers to tasks.o(.data) for uxTopReadyPriority
    tasks.o(i.vTaskRemoveFromUnorderedEventList) refers to tasks.o(.bss) for pxReadyTasksLists
    tasks.o(i.vTaskResume) refers to port.o(i.vPortEnterCritical) for vPortEnterCritical
    tasks.o(i.vTaskResume) refers to tasks.o(i.prvTaskIsTaskSuspended) for prvTaskIsTaskSuspended
    tasks.o(i.vTaskResume) refers to list.o(i.uxListRemove) for uxListRemove
    tasks.o(i.vTaskResume) refers to list.o(i.vListInsertEnd) for vListInsertEnd
    tasks.o(i.vTaskResume) refers to port.o(i.vPortYield) for vPortYield
    tasks.o(i.vTaskResume) refers to port.o(i.vPortExitCritical) for vPortExitCritical
    tasks.o(i.vTaskResume) refers to tasks.o(.data) for pxCurrentTCB
    tasks.o(i.vTaskResume) refers to tasks.o(.bss) for pxReadyTasksLists
    tasks.o(i.vTaskSetTimeOutState) refers to port.o(i.vPortEnterCritical) for vPortEnterCritical
    tasks.o(i.vTaskSetTimeOutState) refers to port.o(i.vPortExitCritical) for vPortExitCritical
    tasks.o(i.vTaskSetTimeOutState) refers to tasks.o(.data) for xNumOfOverflows
    tasks.o(i.vTaskStartScheduler) refers to tasks.o(i.xTaskCreate) for xTaskCreate
    tasks.o(i.vTaskStartScheduler) refers to bstim32_timing.o(i.TimeStart) for TimeStart
    tasks.o(i.vTaskStartScheduler) refers to port.o(i.xPortStartScheduler) for xPortStartScheduler
    tasks.o(i.vTaskStartScheduler) refers to tasks.o(.data) for xIdleTaskHandle
    tasks.o(i.vTaskStartScheduler) refers to tasks.o(i.prvIdleTask) for prvIdleTask
    tasks.o(i.vTaskSuspend) refers to port.o(i.vPortEnterCritical) for vPortEnterCritical
    tasks.o(i.vTaskSuspend) refers to list.o(i.uxListRemove) for uxListRemove
    tasks.o(i.vTaskSuspend) refers to list.o(i.vListInsertEnd) for vListInsertEnd
    tasks.o(i.vTaskSuspend) refers to port.o(i.vPortExitCritical) for vPortExitCritical
    tasks.o(i.vTaskSuspend) refers to tasks.o(i.prvResetNextTaskUnblockTime) for prvResetNextTaskUnblockTime
    tasks.o(i.vTaskSuspend) refers to port.o(i.vPortYield) for vPortYield
    tasks.o(i.vTaskSuspend) refers to tasks.o(i.vTaskSwitchContext) for vTaskSwitchContext
    tasks.o(i.vTaskSuspend) refers to tasks.o(.data) for pxCurrentTCB
    tasks.o(i.vTaskSuspend) refers to tasks.o(.bss) for xSuspendedTaskList
    tasks.o(i.vTaskSuspendAll) refers to tasks.o(.data) for uxSchedulerSuspended
    tasks.o(i.vTaskSwitchContext) refers to bstim32_timing.o(i.TimeStop) for TimeStop
    tasks.o(i.vTaskSwitchContext) refers to tasks.o(.data) for uxSchedulerSuspended
    tasks.o(i.vTaskSwitchContext) refers to tasks.o(.bss) for pxReadyTasksLists
    tasks.o(i.xTaskCheckForTimeOut) refers to port.o(i.vPortEnterCritical) for vPortEnterCritical
    tasks.o(i.xTaskCheckForTimeOut) refers to tasks.o(i.vTaskInternalSetTimeOutState) for vTaskInternalSetTimeOutState
    tasks.o(i.xTaskCheckForTimeOut) refers to port.o(i.vPortExitCritical) for vPortExitCritical
    tasks.o(i.xTaskCheckForTimeOut) refers to tasks.o(.data) for xTickCount
    tasks.o(i.xTaskCreate) refers to heap_4.o(i.pvPortMalloc) for pvPortMalloc
    tasks.o(i.xTaskCreate) refers to heap_4.o(i.vPortFree) for vPortFree
    tasks.o(i.xTaskCreate) refers to tasks.o(i.prvInitialiseNewTask) for prvInitialiseNewTask
    tasks.o(i.xTaskCreate) refers to tasks.o(i.prvAddNewTaskToReadyList) for prvAddNewTaskToReadyList
    tasks.o(i.xTaskGenericNotify) refers to port.o(i.vPortEnterCritical) for vPortEnterCritical
    tasks.o(i.xTaskGenericNotify) refers to fm33lc0xx_fl_lpuart.o(i.__ARM_common_switch8) for __ARM_common_switch8
    tasks.o(i.xTaskGenericNotify) refers to list.o(i.uxListRemove) for uxListRemove
    tasks.o(i.xTaskGenericNotify) refers to list.o(i.vListInsertEnd) for vListInsertEnd
    tasks.o(i.xTaskGenericNotify) refers to port.o(i.vPortYield) for vPortYield
    tasks.o(i.xTaskGenericNotify) refers to port.o(i.vPortExitCritical) for vPortExitCritical
    tasks.o(i.xTaskGenericNotify) refers to tasks.o(.data) for uxTopReadyPriority
    tasks.o(i.xTaskGenericNotify) refers to tasks.o(.bss) for pxReadyTasksLists
    tasks.o(i.xTaskGenericNotifyFromISR) refers to port.o(.emb_text) for ulSetInterruptMaskFromISR
    tasks.o(i.xTaskGenericNotifyFromISR) refers to fm33lc0xx_fl_lpuart.o(i.__ARM_common_switch8) for __ARM_common_switch8
    tasks.o(i.xTaskGenericNotifyFromISR) refers to list.o(i.uxListRemove) for uxListRemove
    tasks.o(i.xTaskGenericNotifyFromISR) refers to list.o(i.vListInsertEnd) for vListInsertEnd
    tasks.o(i.xTaskGenericNotifyFromISR) refers to tasks.o(.data) for uxSchedulerSuspended
    tasks.o(i.xTaskGenericNotifyFromISR) refers to tasks.o(.bss) for pxReadyTasksLists
    tasks.o(i.xTaskGetCurrentTaskHandle) refers to tasks.o(.data) for pxCurrentTCB
    tasks.o(i.xTaskGetTickCount) refers to tasks.o(.data) for xTickCount
    tasks.o(i.xTaskGetTickCountFromISR) refers to tasks.o(.data) for xTickCount
    tasks.o(i.xTaskIncrementTick) refers to tasks.o(i.prvResetNextTaskUnblockTime) for prvResetNextTaskUnblockTime
    tasks.o(i.xTaskIncrementTick) refers to list.o(i.uxListRemove) for uxListRemove
    tasks.o(i.xTaskIncrementTick) refers to list.o(i.vListInsertEnd) for vListInsertEnd
    tasks.o(i.xTaskIncrementTick) refers to tasks.o(.data) for uxSchedulerSuspended
    tasks.o(i.xTaskIncrementTick) refers to tasks.o(.bss) for pxReadyTasksLists
    tasks.o(i.xTaskNotifyStateClear) refers to port.o(i.vPortEnterCritical) for vPortEnterCritical
    tasks.o(i.xTaskNotifyStateClear) refers to port.o(i.vPortExitCritical) for vPortExitCritical
    tasks.o(i.xTaskNotifyStateClear) refers to tasks.o(.data) for pxCurrentTCB
    tasks.o(i.xTaskNotifyWait) refers to port.o(i.vPortEnterCritical) for vPortEnterCritical
    tasks.o(i.xTaskNotifyWait) refers to tasks.o(i.prvAddCurrentTaskToDelayedList) for prvAddCurrentTaskToDelayedList
    tasks.o(i.xTaskNotifyWait) refers to port.o(i.vPortYield) for vPortYield
    tasks.o(i.xTaskNotifyWait) refers to port.o(i.vPortExitCritical) for vPortExitCritical
    tasks.o(i.xTaskNotifyWait) refers to tasks.o(.data) for pxCurrentTCB
    tasks.o(i.xTaskPriorityDisinherit) refers to list.o(i.uxListRemove) for uxListRemove
    tasks.o(i.xTaskPriorityDisinherit) refers to list.o(i.vListInsertEnd) for vListInsertEnd
    tasks.o(i.xTaskPriorityDisinherit) refers to tasks.o(.data) for uxTopReadyPriority
    tasks.o(i.xTaskPriorityDisinherit) refers to tasks.o(.bss) for pxReadyTasksLists
    tasks.o(i.xTaskPriorityInherit) refers to list.o(i.uxListRemove) for uxListRemove
    tasks.o(i.xTaskPriorityInherit) refers to list.o(i.vListInsertEnd) for vListInsertEnd
    tasks.o(i.xTaskPriorityInherit) refers to tasks.o(.data) for pxCurrentTCB
    tasks.o(i.xTaskPriorityInherit) refers to tasks.o(.bss) for pxReadyTasksLists
    tasks.o(i.xTaskRemoveFromEventList) refers to list.o(i.uxListRemove) for uxListRemove
    tasks.o(i.xTaskRemoveFromEventList) refers to list.o(i.vListInsertEnd) for vListInsertEnd
    tasks.o(i.xTaskRemoveFromEventList) refers to tasks.o(.data) for uxSchedulerSuspended
    tasks.o(i.xTaskRemoveFromEventList) refers to tasks.o(.bss) for pxReadyTasksLists
    tasks.o(i.xTaskResumeAll) refers to port.o(i.vPortEnterCritical) for vPortEnterCritical
    tasks.o(i.xTaskResumeAll) refers to list.o(i.uxListRemove) for uxListRemove
    tasks.o(i.xTaskResumeAll) refers to list.o(i.vListInsertEnd) for vListInsertEnd
    tasks.o(i.xTaskResumeAll) refers to tasks.o(i.prvResetNextTaskUnblockTime) for prvResetNextTaskUnblockTime
    tasks.o(i.xTaskResumeAll) refers to tasks.o(i.xTaskIncrementTick) for xTaskIncrementTick
    tasks.o(i.xTaskResumeAll) refers to port.o(i.vPortYield) for vPortYield
    tasks.o(i.xTaskResumeAll) refers to port.o(i.vPortExitCritical) for vPortExitCritical
    tasks.o(i.xTaskResumeAll) refers to tasks.o(.data) for uxSchedulerSuspended
    tasks.o(i.xTaskResumeAll) refers to tasks.o(.bss) for xPendingReadyList
    tasks.o(i.xTaskResumeFromISR) refers to port.o(.emb_text) for ulSetInterruptMaskFromISR
    tasks.o(i.xTaskResumeFromISR) refers to tasks.o(i.prvTaskIsTaskSuspended) for prvTaskIsTaskSuspended
    tasks.o(i.xTaskResumeFromISR) refers to list.o(i.uxListRemove) for uxListRemove
    tasks.o(i.xTaskResumeFromISR) refers to list.o(i.vListInsertEnd) for vListInsertEnd
    tasks.o(i.xTaskResumeFromISR) refers to tasks.o(.data) for uxSchedulerSuspended
    tasks.o(i.xTaskResumeFromISR) refers to tasks.o(.bss) for pxReadyTasksLists
    heap_4.o(i.prvHeapInit) refers to heap_4.o(.bss) for ucHeap
    heap_4.o(i.prvHeapInit) refers to heap_4.o(.data) for xStart
    heap_4.o(i.prvInsertBlockIntoFreeList) refers to heap_4.o(.data) for xStart
    heap_4.o(i.pvPortMalloc) refers to tasks.o(i.vTaskSuspendAll) for vTaskSuspendAll
    heap_4.o(i.pvPortMalloc) refers to heap_4.o(i.prvHeapInit) for prvHeapInit
    heap_4.o(i.pvPortMalloc) refers to heap_4.o(i.prvInsertBlockIntoFreeList) for prvInsertBlockIntoFreeList
    heap_4.o(i.pvPortMalloc) refers to tasks.o(i.xTaskResumeAll) for xTaskResumeAll
    heap_4.o(i.pvPortMalloc) refers to heap_4.o(.data) for pxEnd
    heap_4.o(i.vPortFree) refers to tasks.o(i.vTaskSuspendAll) for vTaskSuspendAll
    heap_4.o(i.vPortFree) refers to heap_4.o(i.prvInsertBlockIntoFreeList) for prvInsertBlockIntoFreeList
    heap_4.o(i.vPortFree) refers to tasks.o(i.xTaskResumeAll) for xTaskResumeAll
    heap_4.o(i.vPortFree) refers to heap_4.o(.data) for xBlockAllocatedBit
    heap_4.o(i.xPortGetFreeHeapSize) refers to heap_4.o(.data) for xFreeBytesRemaining
    heap_4.o(i.xPortGetMinimumEverFreeHeapSize) refers to heap_4.o(.data) for xMinimumEverFreeBytesRemaining
    port.o(.emb_text) refers to tasks.o(.data) for pxCurrentTCB
    port.o(.emb_text) refers to tasks.o(i.vTaskSwitchContext) for vTaskSwitchContext
    port.o(i.pxPortInitialiseStack) refers to port.o(i.prvTaskExitError) for prvTaskExitError
    port.o(i.vPortEnterCritical) refers to port.o(.data) for uxCriticalNesting
    port.o(i.vPortExitCritical) refers to port.o(.data) for uxCriticalNesting
    port.o(i.xPortStartScheduler) refers to port.o(i.prvSetupTimerInterrupt) for prvSetupTimerInterrupt
    port.o(i.xPortStartScheduler) refers to port.o(.emb_text) for __asm___6_port_c_39a90d8d__prvPortStartFirstTask
    port.o(i.xPortStartScheduler) refers to port.o(.data) for uxCriticalNesting
    port.o(i.xPortSysTickHandler) refers to port.o(.emb_text) for ulSetInterruptMaskFromISR
    port.o(i.xPortSysTickHandler) refers to tasks.o(i.xTaskIncrementTick) for xTaskIncrementTick
    use_no_semi_2.o(.text) refers (Special) to use_no_semi.o(.text) for __use_no_semihosting_swi
    __2printf.o(.text) refers to _printf_char_file.o(.text) for _printf_char_file
    __2printf.o(.text) refers to user_init.o(.data) for __stdout
    __2sprintf.o(.text) refers to _printf_char_common.o(.text) for _printf_char_common
    __2sprintf.o(.text) refers to _sputc.o(.text) for _sputc
    noretval__2printf.o(.text) refers to _printf_char_file.o(.text) for _printf_char_file
    noretval__2printf.o(.text) refers to user_init.o(.data) for __stdout
    noretval__2sprintf.o(.text) refers to _printf_char_common.o(.text) for _printf_char_common
    noretval__2sprintf.o(.text) refers to _sputc.o(.text) for _sputc
    __printf.o(.text) refers to _printf_percent.o(.ARM.Collect$$_printf_percent$$00000000) for _printf_percent
    _printf_str.o(.text) refers (Special) to _printf_char.o(.text) for _printf_cs_common
    _printf_dec.o(.text) refers to rtudiv10.o(.text) for __rt_udiv10
    _printf_dec.o(.text) refers to _printf_intcommon.o(.text) for _printf_int_common
    _printf_hex_ll.o(.text) refers to _printf_intcommon.o(.text) for _printf_int_common
    _printf_hex_ll.o(.text) refers to _printf_hex_ll.o(.constdata) for .constdata
    _printf_hex_int.o(.text) refers to _printf_intcommon.o(.text) for _printf_int_common
    _printf_hex_int.o(.text) refers to _printf_hex_int.o(.constdata) for .constdata
    _printf_hex_int_ll.o(.text) refers to _printf_intcommon.o(.text) for _printf_int_common
    _printf_hex_int_ll.o(.text) refers to _printf_hex_int_ll.o(.constdata) for .constdata
    _printf_hex_ptr.o(.text) refers to _printf_intcommon.o(.text) for _printf_int_common
    _printf_hex_ptr.o(.text) refers to _printf_hex_ptr.o(.constdata) for .constdata
    _printf_hex_int_ptr.o(.text) refers to _printf_intcommon.o(.text) for _printf_int_common
    _printf_hex_int_ptr.o(.text) refers to _printf_hex_int_ptr.o(.constdata) for .constdata
    _printf_hex_ll_ptr.o(.text) refers to _printf_intcommon.o(.text) for _printf_int_common
    _printf_hex_ll_ptr.o(.text) refers to _printf_hex_ll_ptr.o(.constdata) for .constdata
    _printf_hex_int_ll_ptr.o(.text) refers to _printf_intcommon.o(.text) for _printf_int_common
    _printf_hex_int_ll_ptr.o(.text) refers to _printf_hex_int_ll_ptr.o(.constdata) for .constdata
    __printf_flags.o(.text) refers to _printf_percent.o(.ARM.Collect$$_printf_percent$$00000000) for _printf_percent
    __printf_flags.o(.text) refers to __printf_flags.o(.constdata) for .constdata
    __printf_ss.o(.text) refers to _printf_percent.o(.ARM.Collect$$_printf_percent$$00000000) for _printf_percent
    __printf_flags_ss.o(.text) refers to _printf_percent.o(.ARM.Collect$$_printf_percent$$00000000) for _printf_percent
    __printf_flags_ss.o(.text) refers to __printf_flags_ss.o(.constdata) for .constdata
    __printf_wp.o(.text) refers to __printf_wp.o(i._is_digit) for _is_digit
    __printf_wp.o(.text) refers to _printf_percent.o(.ARM.Collect$$_printf_percent$$00000000) for _printf_percent
    __printf_flags_wp.o(.text) refers to __printf_wp.o(i._is_digit) for _is_digit
    __printf_flags_wp.o(.text) refers to _printf_percent.o(.ARM.Collect$$_printf_percent$$00000000) for _printf_percent
    __printf_flags_wp.o(.text) refers to __printf_flags_wp.o(.constdata) for .constdata
    __printf_ss_wp.o(.text) refers to __printf_wp.o(i._is_digit) for _is_digit
    __printf_ss_wp.o(.text) refers to _printf_percent.o(.ARM.Collect$$_printf_percent$$00000000) for _printf_percent
    __printf_flags_ss_wp.o(.text) refers to __printf_wp.o(i._is_digit) for _is_digit
    __printf_flags_ss_wp.o(.text) refers to _printf_percent.o(.ARM.Collect$$_printf_percent$$00000000) for _printf_percent
    __printf_flags_ss_wp.o(.text) refers to __printf_flags_ss_wp.o(.constdata) for .constdata
    _printf_c.o(.ARM.Collect$$_printf_percent$$00000013) refers (Weak) to _printf_char.o(.text) for _printf_char
    _printf_x.o(.ARM.Collect$$_printf_percent$$0000000C) refers (Weak) to _printf_hex_int.o(.text) for _printf_int_hex
    _printf_d.o(.ARM.Collect$$_printf_percent$$00000009) refers (Weak) to _printf_dec.o(.text) for _printf_int_dec
    _printf_u.o(.ARM.Collect$$_printf_percent$$0000000A) refers (Weak) to _printf_dec.o(.text) for _printf_int_dec
    _printf_percent.o(.ARM.Collect$$_printf_percent$$00000000) refers (Special) to _printf_percent_end.o(.ARM.Collect$$_printf_percent$$00000017) for _printf_percent_end
    rt_memcpy.o(.text) refers to rt_memcpy.o(.emb_text) for __aeabi_memcpy4
    aeabi_memset.o(.text) refers to rt_memclr.o(.text) for _memset
    __main.o(!!!main) refers to __rtentry.o(.ARM.Collect$$rtentry$$00000000) for __rt_entry
    d2f.o(.text) refers (Special) to usenofp.o(x$fpl$usenofp) for __I$use$fp
    daddsub.o(.text) refers (Special) to usenofp.o(x$fpl$usenofp) for __I$use$fp
    ddiv.o(.text) refers (Special) to usenofp.o(x$fpl$usenofp) for __I$use$fp
    ddiv.o(.text) refers to ddiv.o(.constdata) for .constdata
    ddiv.o(.constdata) refers (Special) to usenofp.o(x$fpl$usenofp) for __I$use$fp
    dfixui.o(.text) refers (Special) to usenofp.o(x$fpl$usenofp) for __I$use$fp
    dflti.o(.text) refers (Special) to usenofp.o(x$fpl$usenofp) for __I$use$fp
    dmul.o(.text) refers (Special) to usenofp.o(x$fpl$usenofp) for __I$use$fp
    f2d.o(.text) refers (Special) to usenofp.o(x$fpl$usenofp) for __I$use$fp
    fdiv.o(.text) refers (Special) to usenofp.o(x$fpl$usenofp) for __I$use$fp
    fdiv.o(.text) refers to fdiv.o(.constdata) for .constdata
    fdiv.o(.constdata) refers (Special) to usenofp.o(x$fpl$usenofp) for __I$use$fp
    fflti.o(.text) refers (Special) to usenofp.o(x$fpl$usenofp) for __I$use$fp
    flef.o(x$fpl$fleqf) refers (Special) to usenofp.o(x$fpl$usenofp) for __I$use$fp
    flef.o(x$fpl$fleqf) refers to fcmpin.o(.text) for __fpl_fcmp_InfNaN
    __rtentry.o(.ARM.Collect$$rtentry$$00000000) refers (Special) to __rtentry2.o(.ARM.Collect$$rtentry$$0000000A) for __rt_entry_li
    __rtentry.o(.ARM.Collect$$rtentry$$00000000) refers (Special) to __rtentry2.o(.ARM.Collect$$rtentry$$0000000D) for __rt_entry_main
    __rtentry.o(.ARM.Collect$$rtentry$$00000000) refers (Special) to __rtentry2.o(.ARM.Collect$$rtentry$$0000000C) for __rt_entry_postli_1
    __rtentry.o(.ARM.Collect$$rtentry$$00000000) refers (Special) to __rtentry2.o(.ARM.Collect$$rtentry$$00000009) for __rt_entry_postsh_1
    __rtentry.o(.ARM.Collect$$rtentry$$00000000) refers (Special) to __rtentry2.o(.ARM.Collect$$rtentry$$00000002) for __rt_entry_presh_1
    __rtentry.o(.ARM.Collect$$rtentry$$00000000) refers (Special) to __rtentry4.o(.ARM.Collect$$rtentry$$00000004) for __rt_entry_sh
    aeabi_idiv0_sigfpe.o(.text) refers to rt_div0.o(.text) for __rt_div0
    aeabi_ldiv0_sigfpe.o(.text) refers to rt_div0.o(.text) for __rt_div0
    _printf_char_common.o(.text) refers to __printf.o(.text) for __printf
    _printf_char.o(.text) refers (Weak) to _printf_str.o(.text) for _printf_str
    _printf_char_file.o(.text) refers to _printf_char_common.o(.text) for _printf_char_common
    _printf_char_file.o(.text) refers to ferror.o(.text) for ferror
    _printf_char_file.o(.text) refers to user_init.o(i.fputc) for fputc
    fcmpin.o(.text) refers (Special) to usenofp.o(x$fpl$usenofp) for __I$use$fp
    fcmpin.o(.text) refers to cmpret.o(.text) for __fpl_cmpreturn
    fcmpin.o(.text) refers to fnan2.o(.text) for __fpl_fcheck_NaN2
    __rtentry2.o(.ARM.Collect$$rtentry$$00000008) refers to boardinit2.o(.text) for _platform_post_stackheap_init
    __rtentry2.o(.ARM.Collect$$rtentry$$0000000A) refers to libinit.o(.ARM.Collect$$libinit$$00000000) for __rt_lib_init
    __rtentry2.o(.ARM.Collect$$rtentry$$0000000B) refers to boardinit3.o(.text) for _platform_post_lib_init
    __rtentry2.o(.ARM.Collect$$rtentry$$0000000D) refers to main.o(i.main) for main
    __rtentry2.o(.ARM.Collect$$rtentry$$0000000D) refers to exit.o(.text) for exit
    __rtentry2.o(.ARM.exidx) refers to __rtentry2.o(.ARM.Collect$$rtentry$$00000001) for .ARM.Collect$$rtentry$$00000001
    __rtentry2.o(.ARM.exidx) refers to __rtentry2.o(.ARM.Collect$$rtentry$$00000008) for .ARM.Collect$$rtentry$$00000008
    __rtentry2.o(.ARM.exidx) refers to __rtentry2.o(.ARM.Collect$$rtentry$$0000000A) for .ARM.Collect$$rtentry$$0000000A
    __rtentry2.o(.ARM.exidx) refers to __rtentry2.o(.ARM.Collect$$rtentry$$0000000B) for .ARM.Collect$$rtentry$$0000000B
    __rtentry2.o(.ARM.exidx) refers to __rtentry2.o(.ARM.Collect$$rtentry$$0000000D) for .ARM.Collect$$rtentry$$0000000D
    __rtentry4.o(.ARM.Collect$$rtentry$$00000004) refers to sys_stackheap_outer.o(.text) for __user_setup_stackheap
    __rtentry4.o(.ARM.exidx) refers to __rtentry4.o(.ARM.Collect$$rtentry$$00000004) for .ARM.Collect$$rtentry$$00000004
    rt_div0.o(.text) refers to defsig_fpe_outer.o(.text) for __rt_SIGFPE
    cmpret.o(.text) refers (Special) to usenofp.o(x$fpl$usenofp) for __I$use$fp
    fnan2.o(.text) refers (Special) to usenofp.o(x$fpl$usenofp) for __I$use$fp
    fnan2.o(.text) refers to retnan.o(.text) for __fpl_return_NaN
    sys_stackheap_outer.o(.text) refers to libspace.o(.text) for __user_perproc_libspace
    sys_stackheap_outer.o(.text) refers to startup_fm33lc0xx.o(.text) for __user_initial_stackheap
    sys_stackheap_outer.o(__vectab_stack_and_reset_area) refers to tempstk.o(.text) for __temporary_stack_top
    sys_stackheap_outer.o(__vectab_stack_and_reset_area) refers to __main.o(!!!main) for __main
    exit.o(.text) refers to rtexit.o(.ARM.Collect$$rtexit$$00000000) for __rt_exit
    defsig_fpe_outer.o(.text) refers to defsig_fpe_inner.o(.text) for __rt_SIGFPE_inner
    defsig_fpe_outer.o(.text) refers to defsig_exit.o(.text) for __sig_exit
    defsig_fpe_formal.o(.text) refers to rt_raise.o(.text) for __rt_raise
    libinit.o(.ARM.Collect$$libinit$$00000000) refers (Special) to libinit2.o(.ARM.Collect$$libinit$$0000002E) for __rt_lib_init_alloca_1
    libinit.o(.ARM.Collect$$libinit$$00000000) refers (Special) to libinit2.o(.ARM.Collect$$libinit$$0000002C) for __rt_lib_init_argv_1
    libinit.o(.ARM.Collect$$libinit$$00000000) refers (Special) to libinit2.o(.ARM.Collect$$libinit$$0000001B) for __rt_lib_init_atexit_1
    libinit.o(.ARM.Collect$$libinit$$00000000) refers (Special) to libinit2.o(.ARM.Collect$$libinit$$00000021) for __rt_lib_init_clock_1
    libinit.o(.ARM.Collect$$libinit$$00000000) refers (Special) to libinit2.o(.ARM.Collect$$libinit$$00000032) for __rt_lib_init_cpp_1
    libinit.o(.ARM.Collect$$libinit$$00000000) refers (Special) to libinit2.o(.ARM.Collect$$libinit$$00000030) for __rt_lib_init_exceptions_1
    libinit.o(.ARM.Collect$$libinit$$00000000) refers (Special) to libinit2.o(.ARM.Collect$$libinit$$00000002) for __rt_lib_init_fp_1
    libinit.o(.ARM.Collect$$libinit$$00000000) refers (Special) to libinit2.o(.ARM.Collect$$libinit$$0000001F) for __rt_lib_init_fp_trap_1
    libinit.o(.ARM.Collect$$libinit$$00000000) refers (Special) to libinit2.o(.ARM.Collect$$libinit$$00000023) for __rt_lib_init_getenv_1
    libinit.o(.ARM.Collect$$libinit$$00000000) refers (Special) to libinit2.o(.ARM.Collect$$libinit$$0000000A) for __rt_lib_init_heap_1
    libinit.o(.ARM.Collect$$libinit$$00000000) refers (Special) to libinit2.o(.ARM.Collect$$libinit$$00000011) for __rt_lib_init_lc_collate_1
    libinit.o(.ARM.Collect$$libinit$$00000000) refers (Special) to libinit2.o(.ARM.Collect$$libinit$$00000013) for __rt_lib_init_lc_ctype_1
    libinit.o(.ARM.Collect$$libinit$$00000000) refers (Special) to libinit2.o(.ARM.Collect$$libinit$$00000015) for __rt_lib_init_lc_monetary_1
    libinit.o(.ARM.Collect$$libinit$$00000000) refers (Special) to libinit2.o(.ARM.Collect$$libinit$$00000017) for __rt_lib_init_lc_numeric_1
    libinit.o(.ARM.Collect$$libinit$$00000000) refers (Special) to libinit2.o(.ARM.Collect$$libinit$$00000019) for __rt_lib_init_lc_time_1
    libinit.o(.ARM.Collect$$libinit$$00000000) refers (Special) to libinit2.o(.ARM.Collect$$libinit$$00000004) for __rt_lib_init_preinit_1
    libinit.o(.ARM.Collect$$libinit$$00000000) refers (Special) to libinit2.o(.ARM.Collect$$libinit$$0000000E) for __rt_lib_init_rand_1
    libinit.o(.ARM.Collect$$libinit$$00000000) refers (Special) to libinit2.o(.ARM.Collect$$libinit$$00000033) for __rt_lib_init_return
    libinit.o(.ARM.Collect$$libinit$$00000000) refers (Special) to libinit2.o(.ARM.Collect$$libinit$$0000001D) for __rt_lib_init_signal_1
    libinit.o(.ARM.Collect$$libinit$$00000000) refers (Special) to libinit2.o(.ARM.Collect$$libinit$$00000025) for __rt_lib_init_stdio_1
    libinit.o(.ARM.Collect$$libinit$$00000000) refers (Special) to libinit2.o(.ARM.Collect$$libinit$$0000000C) for __rt_lib_init_user_alloc_1
    retnan.o(.text) refers (Special) to usenofp.o(x$fpl$usenofp) for __I$use$fp
    retnan.o(.text) refers to cmpret.o(.text) for __fpl_cmpreturn
    libspace.o(.text) refers to libspace.o(.bss) for __libspace_start
    rtexit.o(.ARM.Collect$$rtexit$$00000000) refers (Special) to rtexit2.o(.ARM.Collect$$rtexit$$00000004) for __rt_exit_exit
    rtexit.o(.ARM.Collect$$rtexit$$00000000) refers (Special) to rtexit2.o(.ARM.Collect$$rtexit$$00000003) for __rt_exit_ls
    rtexit.o(.ARM.Collect$$rtexit$$00000000) refers (Special) to rtexit2.o(.ARM.Collect$$rtexit$$00000002) for __rt_exit_prels_1
    rtexit.o(.ARM.exidx) refers (Special) to rtexit2.o(.ARM.Collect$$rtexit$$00000004) for __rt_exit_exit
    rtexit.o(.ARM.exidx) refers (Special) to rtexit2.o(.ARM.Collect$$rtexit$$00000003) for __rt_exit_ls
    rtexit.o(.ARM.exidx) refers (Special) to rtexit2.o(.ARM.Collect$$rtexit$$00000002) for __rt_exit_prels_1
    rtexit.o(.ARM.exidx) refers to rtexit.o(.ARM.Collect$$rtexit$$00000000) for .ARM.Collect$$rtexit$$00000000
    rt_raise.o(.text) refers to __raise.o(.text) for __raise
    rt_raise.o(.text) refers to user_init.o(i._sys_exit) for _sys_exit
    defsig_exit.o(.text) refers to user_init.o(i._sys_exit) for _sys_exit
    defsig_fpe_inner.o(.text) refers to defsig_general.o(.text) for __default_signal_display
    libinit2.o(.ARM.Collect$$libinit$$00000010) refers to libinit2.o(.ARM.Collect$$libinit$$0000000F) for .ARM.Collect$$libinit$$0000000F
    libinit2.o(.ARM.Collect$$libinit$$00000012) refers to libinit2.o(.ARM.Collect$$libinit$$0000000F) for .ARM.Collect$$libinit$$0000000F
    libinit2.o(.ARM.Collect$$libinit$$00000014) refers to libinit2.o(.ARM.Collect$$libinit$$0000000F) for .ARM.Collect$$libinit$$0000000F
    libinit2.o(.ARM.Collect$$libinit$$00000016) refers to libinit2.o(.ARM.Collect$$libinit$$0000000F) for .ARM.Collect$$libinit$$0000000F
    libinit2.o(.ARM.Collect$$libinit$$00000018) refers to libinit2.o(.ARM.Collect$$libinit$$0000000F) for .ARM.Collect$$libinit$$0000000F
    libinit2.o(.ARM.Collect$$libinit$$00000026) refers to argv_veneer.o(.text) for __ARM_argv_veneer
    libinit2.o(.ARM.Collect$$libinit$$00000027) refers to argv_veneer.o(.text) for __ARM_argv_veneer
    rtexit2.o(.ARM.Collect$$rtexit$$00000003) refers to libshutdown.o(.ARM.Collect$$libshutdown$$00000000) for __rt_lib_shutdown
    rtexit2.o(.ARM.Collect$$rtexit$$00000004) refers to user_init.o(i._sys_exit) for _sys_exit
    rtexit2.o(.ARM.exidx) refers to rtexit2.o(.ARM.Collect$$rtexit$$00000001) for .ARM.Collect$$rtexit$$00000001
    rtexit2.o(.ARM.exidx) refers to rtexit2.o(.ARM.Collect$$rtexit$$00000003) for .ARM.Collect$$rtexit$$00000003
    rtexit2.o(.ARM.exidx) refers to rtexit2.o(.ARM.Collect$$rtexit$$00000004) for .ARM.Collect$$rtexit$$00000004
    __raise.o(.text) refers to defsig.o(CL$$defsig) for __default_signal_handler
    defsig_general.o(.text) refers to sys_wrch.o(.text) for _ttywrch
    sys_wrch.o(.text) refers (Special) to use_no_semi.o(.text) for __I$use$semihosting
    sys_wrch.o(.text) refers (Special) to indicate_semi.o(.text) for __semihosting_library_function
    defsig.o(CL$$defsig) refers to defsig_fpe_inner.o(.text) for __rt_SIGFPE_inner
    defsig.o(CL$$defsig) refers to defsig_rtmem_inner.o(.text) for __rt_SIGRTMEM_inner
    _get_argv_nomalloc.o(.text) refers (Special) to hrguard.o(.text) for __heap_region$guard
    _get_argv_nomalloc.o(.text) refers to defsig_rtmem_outer.o(.text) for __rt_SIGRTMEM
    _get_argv_nomalloc.o(.text) refers to sys_command.o(.text) for _sys_command_string
    libshutdown.o(.ARM.Collect$$libshutdown$$00000000) refers (Special) to libshutdown2.o(.ARM.Collect$$libshutdown$$00000002) for __rt_lib_shutdown_cpp_1
    libshutdown.o(.ARM.Collect$$libshutdown$$00000000) refers (Special) to libshutdown2.o(.ARM.Collect$$libshutdown$$00000007) for __rt_lib_shutdown_fp_trap_1
    libshutdown.o(.ARM.Collect$$libshutdown$$00000000) refers (Special) to libshutdown2.o(.ARM.Collect$$libshutdown$$0000000F) for __rt_lib_shutdown_heap_1
    libshutdown.o(.ARM.Collect$$libshutdown$$00000000) refers (Special) to libshutdown2.o(.ARM.Collect$$libshutdown$$00000010) for __rt_lib_shutdown_return
    libshutdown.o(.ARM.Collect$$libshutdown$$00000000) refers (Special) to libshutdown2.o(.ARM.Collect$$libshutdown$$0000000A) for __rt_lib_shutdown_signal_1
    libshutdown.o(.ARM.Collect$$libshutdown$$00000000) refers (Special) to libshutdown2.o(.ARM.Collect$$libshutdown$$00000004) for __rt_lib_shutdown_stdio_1
    libshutdown.o(.ARM.Collect$$libshutdown$$00000000) refers (Special) to libshutdown2.o(.ARM.Collect$$libshutdown$$0000000C) for __rt_lib_shutdown_user_alloc_1
    sys_command.o(.text) refers (Special) to use_no_semi.o(.text) for __I$use$semihosting
    sys_command.o(.text) refers (Special) to indicate_semi.o(.text) for __semihosting_library_function
    defsig_abrt_inner.o(.text) refers to defsig_general.o(.text) for __default_signal_display
    defsig_rtred_inner.o(.text) refers to defsig_general.o(.text) for __default_signal_display
    defsig_rtmem_inner.o(.text) refers to defsig_general.o(.text) for __default_signal_display
    defsig_rtmem_outer.o(.text) refers to defsig_rtmem_inner.o(.text) for __rt_SIGRTMEM_inner
    defsig_rtmem_outer.o(.text) refers to defsig_exit.o(.text) for __sig_exit
    defsig_rtmem_formal.o(.text) refers to rt_raise.o(.text) for __rt_raise
    defsig_stak_inner.o(.text) refers to defsig_general.o(.text) for __default_signal_display
    defsig_pvfn_inner.o(.text) refers to defsig_general.o(.text) for __default_signal_display
    defsig_cppl_inner.o(.text) refers to defsig_general.o(.text) for __default_signal_display
    defsig_segv_inner.o(.text) refers to defsig_general.o(.text) for __default_signal_display
    defsig_other.o(.text) refers to defsig_general.o(.text) for __default_signal_display
    user_init.o(i.__ARM_common_ll_muluu) refers (Special) to use_no_semi_2.o(.text) for __use_no_semihosting


==============================================================================

Removing Unused input sections from the image.

    Removing mf_config.o(.rev16_text), (4 bytes).
    Removing mf_config.o(.revsh_text), (4 bytes).
    Removing mf_config.o(i.Error_Handler), (2 bytes).
    Removing adc.o(.rev16_text), (4 bytes).
    Removing adc.o(.revsh_text), (4 bytes).
    Removing adc.o(i.FL_VREF_DisableVREFBuffer), (10 bytes).
    Removing adc.o(i.FL_VREF_EnableVREFBuffer), (10 bytes).
    Removing adc.o(i.GetSingleChannelSample_IT), (112 bytes).
    Removing adc.o(i.GetSingleChannelVoltage_IT), (100 bytes).
    Removing adc.o(i.GetSingleChannelVoltage_POLL), (100 bytes).
    Removing adc.o(i.GetTSSample_POLL), (144 bytes).
    Removing adc.o(i.GetTS_POLL), (252 bytes).
    Removing adc.o(i.GetVREF1P2Sample_IT), (132 bytes).
    Removing adc.o(i.GetVREF1P2Sample_POLL), (124 bytes).
    Removing bstim32_timing.o(.rev16_text), (4 bytes).
    Removing bstim32_timing.o(.revsh_text), (4 bytes).
    Removing bstim32_timing.o(i.BSTIM32_Loop), (2 bytes).
    Removing bstim32_timing.o(i.BSTIM32_Start), (24 bytes).
    Removing lptim32_timing.o(.rev16_text), (4 bytes).
    Removing lptim32_timing.o(.revsh_text), (4 bytes).
    Removing lptim32_timing.o(i.LPTIM32_Timing_Loop), (2 bytes).
    Removing lptim32_timing.o(i.LPTIM32_Timing_Start), (24 bytes).
    Removing uart.o(.rev16_text), (4 bytes).
    Removing uart.o(.revsh_text), (4 bytes).
    Removing uart.o(i.DebugInit), (32 bytes).
    Removing taskuart.o(.rev16_text), (4 bytes).
    Removing taskuart.o(.revsh_text), (4 bytes).
    Removing gpio.o(.rev16_text), (4 bytes).
    Removing gpio.o(.revsh_text), (4 bytes).
    Removing taskadc.o(.rev16_text), (4 bytes).
    Removing taskadc.o(.revsh_text), (4 bytes).
    Removing main.o(.rev16_text), (4 bytes).
    Removing main.o(.revsh_text), (4 bytes).
    Removing user_init.o(.rev16_text), (4 bytes).
    Removing user_init.o(.revsh_text), (4 bytes).
    Removing user_init.o(i.ClockInit), (232 bytes).
    Removing user_init.o(i.FL_RCC_RCHF_WriteTrimValue), (20 bytes).
    Removing user_init.o(i.FoutInit), (68 bytes).
    Removing system_fm33lc0xx.o(.rev16_text), (4 bytes).
    Removing system_fm33lc0xx.o(.revsh_text), (4 bytes).
    Removing system_fm33lc0xx.o(i.SystemCoreClockUpdate), (2 bytes).
    Removing system_fm33lc0xx.o(.data), (4 bytes).
    Removing fm33lc0xx_fl_adc.o(.rev16_text), (4 bytes).
    Removing fm33lc0xx_fl_adc.o(.revsh_text), (4 bytes).
    Removing fm33lc0xx_fl_adc.o(i.FL_ADC_CommonDeInit), (44 bytes).
    Removing fm33lc0xx_fl_adc.o(i.FL_ADC_CommonStructInit), (12 bytes).
    Removing fm33lc0xx_fl_adc.o(i.FL_ADC_DeInit), (64 bytes).
    Removing fm33lc0xx_fl_adc.o(i.FL_ADC_StructInit), (42 bytes).
    Removing fm33lc0xx_fl_adc.o(i.FL_RCC_DisableResetAPB2Peripheral), (16 bytes).
    Removing fm33lc0xx_fl_adc.o(i.FL_RCC_EnableResetAPB2Peripheral), (16 bytes).
    Removing fm33lc0xx_fl_aes.o(.rev16_text), (4 bytes).
    Removing fm33lc0xx_fl_aes.o(.revsh_text), (4 bytes).
    Removing fm33lc0xx_fl_aes.o(i.FL_AES_DeInit), (76 bytes).
    Removing fm33lc0xx_fl_aes.o(i.FL_AES_Init), (128 bytes).
    Removing fm33lc0xx_fl_aes.o(i.FL_AES_StructInit), (12 bytes).
    Removing fm33lc0xx_fl_atim.o(.rev16_text), (4 bytes).
    Removing fm33lc0xx_fl_atim.o(.revsh_text), (4 bytes).
    Removing fm33lc0xx_fl_atim.o(i.FL_ATIM_BDTR_Init), (244 bytes).
    Removing fm33lc0xx_fl_atim.o(i.FL_ATIM_BDTR_StructInit), (34 bytes).
    Removing fm33lc0xx_fl_atim.o(i.FL_ATIM_CC_SetChannelMode), (54 bytes).
    Removing fm33lc0xx_fl_atim.o(i.FL_ATIM_DeInit), (96 bytes).
    Removing fm33lc0xx_fl_atim.o(i.FL_ATIM_ETRStructInit), (12 bytes).
    Removing fm33lc0xx_fl_atim.o(i.FL_ATIM_ETR_Init), (116 bytes).
    Removing fm33lc0xx_fl_atim.o(i.FL_ATIM_GenerateUpdateEvent), (10 bytes).
    Removing fm33lc0xx_fl_atim.o(i.FL_ATIM_IC_Init), (210 bytes).
    Removing fm33lc0xx_fl_atim.o(i.FL_ATIM_IC_StructInit), (18 bytes).
    Removing fm33lc0xx_fl_atim.o(i.FL_ATIM_Init), (196 bytes).
    Removing fm33lc0xx_fl_atim.o(i.FL_ATIM_OC_DisableChannel), (16 bytes).
    Removing fm33lc0xx_fl_atim.o(i.FL_ATIM_OC_Init), (160 bytes).
    Removing fm33lc0xx_fl_atim.o(i.FL_ATIM_OC_StructInit), (24 bytes).
    Removing fm33lc0xx_fl_atim.o(i.FL_ATIM_SetCounterAlignedMode), (12 bytes).
    Removing fm33lc0xx_fl_atim.o(i.FL_ATIM_SetSlaveMode), (12 bytes).
    Removing fm33lc0xx_fl_atim.o(i.FL_ATIM_SlaveModeStructInit), (14 bytes).
    Removing fm33lc0xx_fl_atim.o(i.FL_ATIM_SlaveMode_Init), (92 bytes).
    Removing fm33lc0xx_fl_atim.o(i.FL_ATIM_StructInit), (28 bytes).
    Removing fm33lc0xx_fl_atim.o(i.FL_RCC_EnableGroup1OperationClock), (16 bytes).
    Removing fm33lc0xx_fl_atim.o(i.FL_RCC_EnableGroup4BusClock), (16 bytes).
    Removing fm33lc0xx_fl_atim.o(i.OCConfig), (428 bytes).
    Removing fm33lc0xx_fl_bstim32.o(.rev16_text), (4 bytes).
    Removing fm33lc0xx_fl_bstim32.o(.revsh_text), (4 bytes).
    Removing fm33lc0xx_fl_bstim32.o(i.FL_BSTIM32_DeInit), (88 bytes).
    Removing fm33lc0xx_fl_bstim32.o(i.FL_BSTIM32_StructInit), (18 bytes).
    Removing fm33lc0xx_fl_bstim32.o(i.FL_RCC_EnableResetAPB2Peripheral), (16 bytes).
    Removing fm33lc0xx_fl_comp.o(.rev16_text), (4 bytes).
    Removing fm33lc0xx_fl_comp.o(.revsh_text), (4 bytes).
    Removing fm33lc0xx_fl_comp.o(i.FL_COMP_DeInit), (10 bytes).
    Removing fm33lc0xx_fl_comp.o(i.FL_COMP_Init), (220 bytes).
    Removing fm33lc0xx_fl_comp.o(i.FL_COMP_StructInit), (16 bytes).
    Removing fm33lc0xx_fl_crc.o(.rev16_text), (4 bytes).
    Removing fm33lc0xx_fl_crc.o(.revsh_text), (4 bytes).
    Removing fm33lc0xx_fl_crc.o(i.FL_CRC_DeInit), (80 bytes).
    Removing fm33lc0xx_fl_crc.o(i.FL_CRC_Init), (156 bytes).
    Removing fm33lc0xx_fl_crc.o(i.LL_CRC_StructInit), (24 bytes).
    Removing fm33lc0xx_fl_dma.o(.rev16_text), (4 bytes).
    Removing fm33lc0xx_fl_dma.o(.revsh_text), (4 bytes).
    Removing fm33lc0xx_fl_dma.o(i.FL_DMA_DeInit), (80 bytes).
    Removing fm33lc0xx_fl_dma.o(i.FL_DMA_StructInit), (20 bytes).
    Removing fm33lc0xx_fl_flash.o(.rev16_text), (4 bytes).
    Removing fm33lc0xx_fl_flash.o(.revsh_text), (4 bytes).
    Removing fm33lc0xx_fl_flash.o(i.FL_DMA_ClearFlag_TransferComplete), (10 bytes).
    Removing fm33lc0xx_fl_flash.o(i.FL_DMA_Disable), (10 bytes).
    Removing fm33lc0xx_fl_flash.o(i.FL_DMA_Enable), (10 bytes).
    Removing fm33lc0xx_fl_flash.o(i.FL_DMA_EnableChannel), (38 bytes).
    Removing fm33lc0xx_fl_flash.o(i.FL_DMA_IsActiveFlag_TransferComplete), (30 bytes).
    Removing fm33lc0xx_fl_flash.o(i.FL_DMA_WriteFlashAddress), (6 bytes).
    Removing fm33lc0xx_fl_flash.o(i.FL_DMA_WriteMemoryAddress), (34 bytes).
    Removing fm33lc0xx_fl_flash.o(i.FL_DMA_WriteTransmissionSize), (42 bytes).
    Removing fm33lc0xx_fl_flash.o(i.FL_FLASH_ClearFlag_EraseComplete), (6 bytes).
    Removing fm33lc0xx_fl_flash.o(i.FL_FLASH_EnableErase), (18 bytes).
    Removing fm33lc0xx_fl_flash.o(i.FL_FLASH_EnableProgram), (18 bytes).
    Removing fm33lc0xx_fl_flash.o(i.FL_FLASH_GetFlashLockStatus), (12 bytes).
    Removing fm33lc0xx_fl_flash.o(i.FL_FLASH_IsActiveFlag_AuthenticationError), (14 bytes).
    Removing fm33lc0xx_fl_flash.o(i.FL_FLASH_IsActiveFlag_ClockError), (14 bytes).
    Removing fm33lc0xx_fl_flash.o(i.FL_FLASH_IsActiveFlag_EraseComplete), (16 bytes).
    Removing fm33lc0xx_fl_flash.o(i.FL_FLASH_IsActiveFlag_KeyError), (14 bytes).
    Removing fm33lc0xx_fl_flash.o(i.FL_FLASH_IsActiveFlag_ProgramComplete), (12 bytes).
    Removing fm33lc0xx_fl_flash.o(i.FL_FLASH_LockFlash), (8 bytes).
    Removing fm33lc0xx_fl_flash.o(i.FL_FLASH_PageErase), (224 bytes).
    Removing fm33lc0xx_fl_flash.o(i.FL_FLASH_Program_Page), (232 bytes).
    Removing fm33lc0xx_fl_flash.o(i.FL_FLASH_Program_Sector), (232 bytes).
    Removing fm33lc0xx_fl_flash.o(i.FL_FLASH_Program_Word), (216 bytes).
    Removing fm33lc0xx_fl_flash.o(i.FL_FLASH_Read_Dma), (168 bytes).
    Removing fm33lc0xx_fl_flash.o(i.FL_FLASH_SectorErase), (228 bytes).
    Removing fm33lc0xx_fl_flash.o(i.FL_FLASH_SetFlashEraseType), (14 bytes).
    Removing fm33lc0xx_fl_flash.o(i.FL_FLASH_UnlockFlash), (4 bytes).
    Removing fm33lc0xx_fl_flash.o(i.FL_FLASH_Write_Dma), (272 bytes).
    Removing fm33lc0xx_fl_flash.o(i.FL_RCC_DisableGroup2OperationClock), (16 bytes).
    Removing fm33lc0xx_fl_flash.o(i.FL_RCC_EnableGroup2BusClock), (16 bytes).
    Removing fm33lc0xx_fl_flash.o(i.FL_RCC_EnableGroup2OperationClock), (16 bytes).
    Removing fm33lc0xx_fl_flash.o(i.__get_PRIMASK), (6 bytes).
    Removing fm33lc0xx_fl_flash.o(i.__set_PRIMASK), (6 bytes).
    Removing fm33lc0xx_fl_gpio.o(.rev16_text), (4 bytes).
    Removing fm33lc0xx_fl_gpio.o(.revsh_text), (4 bytes).
    Removing fm33lc0xx_fl_gpio.o(i.FL_GPIO_ALLPIN_LPM_MODE), (56 bytes).
    Removing fm33lc0xx_fl_gpio.o(i.FL_GPIO_DeInit), (88 bytes).
    Removing fm33lc0xx_fl_gpio.o(i.FL_GPIO_EnableWakeup), (18 bytes).
    Removing fm33lc0xx_fl_gpio.o(i.FL_GPIO_StructInit), (24 bytes).
    Removing fm33lc0xx_fl_gpio.o(i.FL_WKUP_DeInit), (20 bytes).
    Removing fm33lc0xx_fl_gpio.o(i.FL_WKUP_Init), (48 bytes).
    Removing fm33lc0xx_fl_gpio.o(i.FL_WKUP_StructInit), (6 bytes).
    Removing fm33lc0xx_fl_gptim.o(.rev16_text), (4 bytes).
    Removing fm33lc0xx_fl_gptim.o(.revsh_text), (4 bytes).
    Removing fm33lc0xx_fl_gptim.o(i.FL_GPTIM_CC_SetChannelMode), (80 bytes).
    Removing fm33lc0xx_fl_gptim.o(i.FL_GPTIM_DeInit), (108 bytes).
    Removing fm33lc0xx_fl_gptim.o(i.FL_GPTIM_ETR_Init), (136 bytes).
    Removing fm33lc0xx_fl_gptim.o(i.FL_GPTIM_ETR_StructInit), (12 bytes).
    Removing fm33lc0xx_fl_gptim.o(i.FL_GPTIM_GenerateUpdateEvent), (10 bytes).
    Removing fm33lc0xx_fl_gptim.o(i.FL_GPTIM_IC_Init), (456 bytes).
    Removing fm33lc0xx_fl_gptim.o(i.FL_GPTIM_IC_StructInit), (18 bytes).
    Removing fm33lc0xx_fl_gptim.o(i.FL_GPTIM_Init), (184 bytes).
    Removing fm33lc0xx_fl_gptim.o(i.FL_GPTIM_OC_Init), (260 bytes).
    Removing fm33lc0xx_fl_gptim.o(i.FL_GPTIM_OC_StructInit), (16 bytes).
    Removing fm33lc0xx_fl_gptim.o(i.FL_GPTIM_SetCounterAlignedMode), (12 bytes).
    Removing fm33lc0xx_fl_gptim.o(i.FL_GPTIM_SetSlaveMode), (12 bytes).
    Removing fm33lc0xx_fl_gptim.o(i.FL_GPTIM_SlaveMode_Init), (156 bytes).
    Removing fm33lc0xx_fl_gptim.o(i.FL_GPTIM_SlaveMode_StructInit), (16 bytes).
    Removing fm33lc0xx_fl_gptim.o(i.FL_GPTIM_StructInit), (24 bytes).
    Removing fm33lc0xx_fl_gptim.o(i.FL_RCC_DisableGroup4BusClock), (16 bytes).
    Removing fm33lc0xx_fl_gptim.o(i.FL_RCC_DisableResetAPB1Peripheral), (16 bytes).
    Removing fm33lc0xx_fl_gptim.o(i.FL_RCC_EnableGroup4BusClock), (16 bytes).
    Removing fm33lc0xx_fl_gptim.o(i.FL_RCC_EnableResetAPB1Peripheral), (16 bytes).
    Removing fm33lc0xx_fl_gptim.o(i.OCConfig), (416 bytes).
    Removing fm33lc0xx_fl_divas.o(.rev16_text), (4 bytes).
    Removing fm33lc0xx_fl_divas.o(.revsh_text), (4 bytes).
    Removing fm33lc0xx_fl_divas.o(i.FL_DIVAS_DeInit), (80 bytes).
    Removing fm33lc0xx_fl_divas.o(i.FL_DIVAS_Hdiv_Calculation), (112 bytes).
    Removing fm33lc0xx_fl_divas.o(i.FL_DIVAS_Init), (28 bytes).
    Removing fm33lc0xx_fl_i2c.o(.rev16_text), (4 bytes).
    Removing fm33lc0xx_fl_i2c.o(.revsh_text), (4 bytes).
    Removing fm33lc0xx_fl_i2c.o(i.FL_I2C_DeInit), (92 bytes).
    Removing fm33lc0xx_fl_i2c.o(i.FL_I2C_MasterMode_Init), (244 bytes).
    Removing fm33lc0xx_fl_i2c.o(i.FL_I2C_MasterMode_StructInit), (16 bytes).
    Removing fm33lc0xx_fl_i2c.o(i.FL_I2C_SlaveMode_Init), (178 bytes).
    Removing fm33lc0xx_fl_i2c.o(i.FL_I2C_SlaveMode_StructInit), (16 bytes).
    Removing fm33lc0xx_fl_i2c.o(i.FL_I2C_Slave_WriteSlaveAddress), (12 bytes).
    Removing fm33lc0xx_fl_i2c.o(i.FL_RCC_EnableGroup3BusClock), (16 bytes).
    Removing fm33lc0xx_fl_iwdt.o(.rev16_text), (4 bytes).
    Removing fm33lc0xx_fl_iwdt.o(.revsh_text), (4 bytes).
    Removing fm33lc0xx_fl_iwdt.o(i.FL_IWDT_DeInit), (6 bytes).
    Removing fm33lc0xx_fl_iwdt.o(i.FL_IWDT_Init), (68 bytes).
    Removing fm33lc0xx_fl_iwdt.o(i.FL_IWDT_StructInit), (10 bytes).
    Removing fm33lc0xx_fl_lptim32.o(.rev16_text), (4 bytes).
    Removing fm33lc0xx_fl_lptim32.o(.revsh_text), (4 bytes).
    Removing fm33lc0xx_fl_lptim32.o(i.FL_LPTIM32_DeInit), (100 bytes).
    Removing fm33lc0xx_fl_lptim32.o(i.FL_LPTIM32_IC_Init), (140 bytes).
    Removing fm33lc0xx_fl_lptim32.o(i.FL_LPTIM32_IC_StructInit), (8 bytes).
    Removing fm33lc0xx_fl_lptim32.o(i.FL_LPTIM32_OC_Init), (104 bytes).
    Removing fm33lc0xx_fl_lptim32.o(i.FL_LPTIM32_OC_StructInit), (8 bytes).
    Removing fm33lc0xx_fl_lptim32.o(i.FL_LPTIM32_SetChannelMode), (42 bytes).
    Removing fm33lc0xx_fl_lptim32.o(i.FL_LPTIM32_StructInit), (20 bytes).
    Removing fm33lc0xx_fl_lpuart.o(.rev16_text), (4 bytes).
    Removing fm33lc0xx_fl_lpuart.o(.revsh_text), (4 bytes).
    Removing fm33lc0xx_fl_lpuart.o(i.FL_LPUART_DeInit), (140 bytes).
    Removing fm33lc0xx_fl_lpuart.o(i.FL_LPUART_Init), (320 bytes).
    Removing fm33lc0xx_fl_lpuart.o(i.FL_LPUART_StructInit), (24 bytes).
    Removing fm33lc0xx_fl_lpuart.o(i.FL_RCC_DisableGroup1OperationClock), (16 bytes).
    Removing fm33lc0xx_fl_lpuart.o(i.FL_RCC_EnableGroup1OperationClock), (16 bytes).
    Removing fm33lc0xx_fl_lpuart.o(i.FL_RCC_EnableGroup3BusClock), (16 bytes).
    Removing fm33lc0xx_fl_lpuart.o(i.FL_RCC_IsEnabledGroup3BusClock), (24 bytes).
    Removing fm33lc0xx_fl_opa.o(.rev16_text), (4 bytes).
    Removing fm33lc0xx_fl_opa.o(.revsh_text), (4 bytes).
    Removing fm33lc0xx_fl_opa.o(i.FL_OPA_DeInit), (80 bytes).
    Removing fm33lc0xx_fl_opa.o(i.FL_OPA_Init), (114 bytes).
    Removing fm33lc0xx_fl_opa.o(i.FL_OPA_StructInit), (18 bytes).
    Removing fm33lc0xx_fl_pmu.o(.rev16_text), (4 bytes).
    Removing fm33lc0xx_fl_pmu.o(.revsh_text), (4 bytes).
    Removing fm33lc0xx_fl_pmu.o(i.FL_PMU_Sleep_DeInit), (28 bytes).
    Removing fm33lc0xx_fl_pmu.o(i.FL_PMU_Sleep_Init), (108 bytes).
    Removing fm33lc0xx_fl_pmu.o(i.FL_PMU_StructInit), (18 bytes).
    Removing fm33lc0xx_fl_rcc.o(.rev16_text), (4 bytes).
    Removing fm33lc0xx_fl_rcc.o(.revsh_text), (4 bytes).
    Removing fm33lc0xx_fl_rng.o(.rev16_text), (4 bytes).
    Removing fm33lc0xx_fl_rng.o(.revsh_text), (4 bytes).
    Removing fm33lc0xx_fl_rng.o(i.FL_RNG_ClearFlag_CRCComplete), (10 bytes).
    Removing fm33lc0xx_fl_rng.o(i.FL_RNG_DeInit), (80 bytes).
    Removing fm33lc0xx_fl_rng.o(i.FL_RNG_Disable), (10 bytes).
    Removing fm33lc0xx_fl_rng.o(i.FL_RNG_Init), (112 bytes).
    Removing fm33lc0xx_fl_rng.o(i.FL_RNG_StructInit), (8 bytes).
    Removing fm33lc0xx_fl_rng.o(i.GetCrc32), (136 bytes).
    Removing fm33lc0xx_fl_rng.o(i.GetRandomNumber), (96 bytes).
    Removing fm33lc0xx_fl_rtc.o(.rev16_text), (4 bytes).
    Removing fm33lc0xx_fl_rtc.o(.revsh_text), (4 bytes).
    Removing fm33lc0xx_fl_rtc.o(i.FL_RTC_ConfigTime), (128 bytes).
    Removing fm33lc0xx_fl_rtc.o(i.FL_RTC_DeInit), (38 bytes).
    Removing fm33lc0xx_fl_rtc.o(i.FL_RTC_GetTime), (74 bytes).
    Removing fm33lc0xx_fl_rtc.o(i.FL_RTC_Init), (36 bytes).
    Removing fm33lc0xx_fl_rtc.o(i.FL_RTC_StructInit), (18 bytes).
    Removing fm33lc0xx_fl_spi.o(.rev16_text), (4 bytes).
    Removing fm33lc0xx_fl_spi.o(.revsh_text), (4 bytes).
    Removing fm33lc0xx_fl_spi.o(i.FL_RCC_DisableGroup3BusClock), (16 bytes).
    Removing fm33lc0xx_fl_spi.o(i.FL_RCC_EnableGroup3BusClock), (16 bytes).
    Removing fm33lc0xx_fl_spi.o(i.FL_SPI_DeInit), (140 bytes).
    Removing fm33lc0xx_fl_spi.o(i.FL_SPI_Init), (200 bytes).
    Removing fm33lc0xx_fl_spi.o(i.FL_SPI_StructInit), (28 bytes).
    Removing fm33lc0xx_fl_svd.o(.rev16_text), (4 bytes).
    Removing fm33lc0xx_fl_svd.o(.revsh_text), (4 bytes).
    Removing fm33lc0xx_fl_svd.o(i.FL_SVD_DeInit), (24 bytes).
    Removing fm33lc0xx_fl_svd.o(i.FL_SVD_Init), (136 bytes).
    Removing fm33lc0xx_fl_svd.o(i.FL_SVD_StructInit), (16 bytes).
    Removing fm33lc0xx_fl_u7816.o(.rev16_text), (4 bytes).
    Removing fm33lc0xx_fl_u7816.o(.revsh_text), (4 bytes).
    Removing fm33lc0xx_fl_u7816.o(i.FL_U7816_DeInit), (80 bytes).
    Removing fm33lc0xx_fl_u7816.o(i.FL_U7816_Init), (324 bytes).
    Removing fm33lc0xx_fl_u7816.o(i.FL_U7816_StructInit), (60 bytes).
    Removing fm33lc0xx_fl_uart.o(.rev16_text), (4 bytes).
    Removing fm33lc0xx_fl_uart.o(.revsh_text), (4 bytes).
    Removing fm33lc0xx_fl_uart.o(i.FL_RCC_DisableGroup1OperationClock), (16 bytes).
    Removing fm33lc0xx_fl_uart.o(i.FL_RCC_DisableGroup3BusClock), (16 bytes).
    Removing fm33lc0xx_fl_uart.o(i.FL_RCC_DisableResetAPB2Peripheral), (16 bytes).
    Removing fm33lc0xx_fl_uart.o(i.FL_RCC_EnableResetAPB1Peripheral), (16 bytes).
    Removing fm33lc0xx_fl_uart.o(i.FL_RCC_EnableResetAPB2Peripheral), (16 bytes).
    Removing fm33lc0xx_fl_uart.o(i.FL_UART_DeInit), (184 bytes).
    Removing fm33lc0xx_fl_uart.o(i.FL_UART_InfraRed_Init), (408 bytes).
    Removing fm33lc0xx_fl_uart.o(i.FL_UART_InfraRed_StructInit), (20 bytes).
    Removing fm33lc0xx_fl_uart.o(i.FL_UART_StructInit), (28 bytes).
    Removing fm33lc0xx_fl_wwdt.o(.rev16_text), (4 bytes).
    Removing fm33lc0xx_fl_wwdt.o(.revsh_text), (4 bytes).
    Removing fm33lc0xx_fl_wwdt.o(i.FL_WWDT_DeInit), (6 bytes).
    Removing fm33lc0xx_fl_wwdt.o(i.FL_WWDT_Init), (52 bytes).
    Removing fm33lc0xx_fl_wwdt.o(i.FL_WWDT_StructInit), (6 bytes).
    Removing queue.o(i.prvCopyDataFromQueue), (44 bytes).
    Removing queue.o(i.prvInitialiseMutex), (32 bytes).
    Removing queue.o(i.ucQueueGetQueueType), (8 bytes).
    Removing queue.o(i.uxQueueGetQueueNumber), (6 bytes).
    Removing queue.o(i.uxQueueMessagesWaiting), (18 bytes).
    Removing queue.o(i.uxQueueMessagesWaitingFromISR), (8 bytes).
    Removing queue.o(i.uxQueueSpacesAvailable), (24 bytes).
    Removing queue.o(i.vQueueDelete), (14 bytes).
    Removing queue.o(i.vQueueSetQueueNumber), (4 bytes).
    Removing queue.o(i.xQueueCreateMutex), (30 bytes).
    Removing queue.o(i.xQueueGenericSendFromISR), (124 bytes).
    Removing queue.o(i.xQueueIsQueueEmptyFromISR), (18 bytes).
    Removing queue.o(i.xQueueIsQueueFullFromISR), (22 bytes).
    Removing queue.o(i.xQueuePeek), (242 bytes).
    Removing queue.o(i.xQueuePeekFromISR), (48 bytes).
    Removing queue.o(i.xQueueReceive), (238 bytes).
    Removing queue.o(i.xQueueReceiveFromISR), (120 bytes).
    Removing tasks.o(i.eTaskGetState), (128 bytes).
    Removing tasks.o(i.pcTaskGetName), (28 bytes).
    Removing tasks.o(i.prvListTasksWithinSingleList), (106 bytes).
    Removing tasks.o(i.prvTaskCheckFreeStackSpace), (22 bytes).
    Removing tasks.o(i.prvTaskIsTaskSuspended), (72 bytes).
    Removing tasks.o(i.prvWriteNameToBuffer), (42 bytes).
    Removing tasks.o(i.ulTaskNotifyTake), (108 bytes).
    Removing tasks.o(i.uxTaskGetNumberOfTasks), (12 bytes).
    Removing tasks.o(i.uxTaskGetSystemState), (164 bytes).
    Removing tasks.o(i.uxTaskGetTaskNumber), (16 bytes).
    Removing tasks.o(i.uxTaskPriorityGet), (36 bytes).
    Removing tasks.o(i.uxTaskPriorityGetFromISR), (40 bytes).
    Removing tasks.o(i.uxTaskResetEventItemValue), (28 bytes).
    Removing tasks.o(i.vTaskDelayUntil), (96 bytes).
    Removing tasks.o(i.vTaskDelete), (152 bytes).
    Removing tasks.o(i.vTaskEndScheduler), (20 bytes).
    Removing tasks.o(i.vTaskGetInfo), (132 bytes).
    Removing tasks.o(i.vTaskGetRunTimeStats), (192 bytes).
    Removing tasks.o(i.vTaskList), (208 bytes).
    Removing tasks.o(i.vTaskNotifyGiveFromISR), (148 bytes).
    Removing tasks.o(i.vTaskPlaceOnUnorderedEventList), (48 bytes).
    Removing tasks.o(i.vTaskPrioritySet), (208 bytes).
    Removing tasks.o(i.vTaskRemoveFromUnorderedEventList), (96 bytes).
    Removing tasks.o(i.vTaskResume), (104 bytes).
    Removing tasks.o(i.vTaskSetTaskNumber), (10 bytes).
    Removing tasks.o(i.vTaskSetTimeOutState), (36 bytes).
    Removing tasks.o(i.vTaskSuspend), (152 bytes).
    Removing tasks.o(i.xTaskGenericNotify), (180 bytes).
    Removing tasks.o(i.xTaskGenericNotifyFromISR), (228 bytes).
    Removing tasks.o(i.xTaskGetCurrentTaskHandle), (12 bytes).
    Removing tasks.o(i.xTaskGetTickCount), (12 bytes).
    Removing tasks.o(i.xTaskGetTickCountFromISR), (12 bytes).
    Removing tasks.o(i.xTaskNotifyStateClear), (56 bytes).
    Removing tasks.o(i.xTaskNotifyWait), (144 bytes).
    Removing tasks.o(i.xTaskResumeFromISR), (128 bytes).
    Removing heap_4.o(i.vPortInitialiseBlocks), (2 bytes).
    Removing heap_4.o(i.xPortGetFreeHeapSize), (12 bytes).
    Removing heap_4.o(i.xPortGetMinimumEverFreeHeapSize), (12 bytes).
    Removing port.o(i.vPortEndScheduler), (2 bytes).

316 unused section(s) (total 17828 bytes) removed from the image.

==============================================================================

Image Symbol Table

    Local Symbols

    Symbol Name                              Value     Ov Type        Size  Object(Section)

    RESET                                    0x00000000   Section      192  startup_fm33lc0xx.o(RESET)
    ../Drivers/CMSIS/Device/FM/FM33xx/Source/Templates/arm/startup_fm33lc0xx.s 0x00000000   Number         0  startup_fm33lc0xx.o ABSOLUTE
    ../clib/angel/boardlib.s                 0x00000000   Number         0  boardinit3.o ABSOLUTE
    ../clib/angel/boardlib.s                 0x00000000   Number         0  boardinit2.o ABSOLUTE
    ../clib/angel/boardlib.s                 0x00000000   Number         0  boardinit1.o ABSOLUTE
    ../clib/angel/boardlib.s                 0x00000000   Number         0  boardshut.o ABSOLUTE
    ../clib/angel/handlers.s                 0x00000000   Number         0  __scatter_zi.o ABSOLUTE
    ../clib/angel/handlers.s                 0x00000000   Number         0  __scatter_copy.o ABSOLUTE
    ../clib/angel/kernel.s                   0x00000000   Number         0  __rtentry4.o ABSOLUTE
    ../clib/angel/kernel.s                   0x00000000   Number         0  __rtentry.o ABSOLUTE
    ../clib/angel/kernel.s                   0x00000000   Number         0  rtexit2.o ABSOLUTE
    ../clib/angel/kernel.s                   0x00000000   Number         0  rtexit.o ABSOLUTE
    ../clib/angel/kernel.s                   0x00000000   Number         0  __rtentry2.o ABSOLUTE
    ../clib/angel/rt.s                       0x00000000   Number         0  aeabi_ldiv0_sigfpe.o ABSOLUTE
    ../clib/angel/rt.s                       0x00000000   Number         0  aeabi_ldiv0.o ABSOLUTE
    ../clib/angel/rt.s                       0x00000000   Number         0  aeabi_idiv0_sigfpe.o ABSOLUTE
    ../clib/angel/rt.s                       0x00000000   Number         0  aeabi_idiv0.o ABSOLUTE
    ../clib/angel/rt.s                       0x00000000   Number         0  rt_div0.o ABSOLUTE
    ../clib/angel/rt.s                       0x00000000   Number         0  rt_raise.o ABSOLUTE
    ../clib/angel/scatterp.s                 0x00000000   Number         0  __scatter.o ABSOLUTE
    ../clib/angel/startup.s                  0x00000000   Number         0  __main.o ABSOLUTE
    ../clib/angel/sys.s                      0x00000000   Number         0  tempstk.o ABSOLUTE
    ../clib/angel/sys.s                      0x00000000   Number         0  use_no_semi_2.o ABSOLUTE
    ../clib/angel/sys.s                      0x00000000   Number         0  use_no_semi.o ABSOLUTE
    ../clib/angel/sys.s                      0x00000000   Number         0  indicate_semi.o ABSOLUTE
    ../clib/angel/sys.s                      0x00000000   Number         0  sys_stackheap_outer.o ABSOLUTE
    ../clib/angel/sys.s                      0x00000000   Number         0  libspace.o ABSOLUTE
    ../clib/angel/sysapp.c                   0x00000000   Number         0  sys_command.o ABSOLUTE
    ../clib/angel/sysapp.c                   0x00000000   Number         0  sys_wrch.o ABSOLUTE
    ../clib/armsys.c                         0x00000000   Number         0  no_argv.o ABSOLUTE
    ../clib/armsys.c                         0x00000000   Number         0  _get_argv_nomalloc.o ABSOLUTE
    ../clib/armsys.c                         0x00000000   Number         0  argv_veneer.o ABSOLUTE
    ../clib/division.c                       0x00000000   Number         0  rtudiv10.o ABSOLUTE
    ../clib/division.c                       0x00000000   Number         0  lludiv.o ABSOLUTE
    ../clib/division.s                       0x00000000   Number         0  aeabi_sdiv.o ABSOLUTE
    ../clib/division.s                       0x00000000   Number         0  aeabi_sdiv_div0.o ABSOLUTE
    ../clib/heapalloc.c                      0x00000000   Number         0  hrguard.o ABSOLUTE
    ../clib/heapaux.c                        0x00000000   Number         0  heapauxi.o ABSOLUTE
    ../clib/libinit.s                        0x00000000   Number         0  libshutdown2.o ABSOLUTE
    ../clib/libinit.s                        0x00000000   Number         0  libshutdown.o ABSOLUTE
    ../clib/libinit.s                        0x00000000   Number         0  libinit2.o ABSOLUTE
    ../clib/libinit.s                        0x00000000   Number         0  libinit.o ABSOLUTE
    ../clib/longlong.c                       0x00000000   Number         0  llmul.o ABSOLUTE
    ../clib/memcpset.c                       0x00000000   Number         0  aeabi_memset.o ABSOLUTE
    ../clib/memcpset.c                       0x00000000   Number         0  rt_memcpy.o ABSOLUTE
    ../clib/memcpset.c                       0x00000000   Number         0  rt_memcpy.o ABSOLUTE
    ../clib/memcpset.c                       0x00000000   Number         0  rt_memclr.o ABSOLUTE
    ../clib/printf.c                         0x00000000   Number         0  _printf_dec.o ABSOLUTE
    ../clib/printf.c                         0x00000000   Number         0  __2sprintf.o ABSOLUTE
    ../clib/printf.c                         0x00000000   Number         0  noretval__2printf.o ABSOLUTE
    ../clib/printf.c                         0x00000000   Number         0  noretval__2sprintf.o ABSOLUTE
    ../clib/printf.c                         0x00000000   Number         0  _printf_hex_ll_ptr.o ABSOLUTE
    ../clib/printf.c                         0x00000000   Number         0  _printf_hex_int_ll_ptr.o ABSOLUTE
    ../clib/printf.c                         0x00000000   Number         0  __printf_flags.o ABSOLUTE
    ../clib/printf.c                         0x00000000   Number         0  __printf_ss.o ABSOLUTE
    ../clib/printf.c                         0x00000000   Number         0  __printf_flags_ss.o ABSOLUTE
    ../clib/printf.c                         0x00000000   Number         0  __2printf.o ABSOLUTE
    ../clib/printf.c                         0x00000000   Number         0  __printf_flags_wp.o ABSOLUTE
    ../clib/printf.c                         0x00000000   Number         0  __printf_ss_wp.o ABSOLUTE
    ../clib/printf.c                         0x00000000   Number         0  __printf.o ABSOLUTE
    ../clib/printf.c                         0x00000000   Number         0  _printf_str.o ABSOLUTE
    ../clib/printf.c                         0x00000000   Number         0  __printf_wp.o ABSOLUTE
    ../clib/printf.c                         0x00000000   Number         0  _printf_char_common.o ABSOLUTE
    ../clib/printf.c                         0x00000000   Number         0  _printf_char.o ABSOLUTE
    ../clib/printf.c                         0x00000000   Number         0  __printf_flags_ss_wp.o ABSOLUTE
    ../clib/printf.c                         0x00000000   Number         0  _printf_hex_int_ptr.o ABSOLUTE
    ../clib/printf.c                         0x00000000   Number         0  _printf_intcommon.o ABSOLUTE
    ../clib/printf.c                         0x00000000   Number         0  _printf_hex_ptr.o ABSOLUTE
    ../clib/printf.c                         0x00000000   Number         0  _printf_char_file.o ABSOLUTE
    ../clib/printf.c                         0x00000000   Number         0  __printf_nopercent.o ABSOLUTE
    ../clib/printf.c                         0x00000000   Number         0  _printf_hex_int_ll.o ABSOLUTE
    ../clib/printf.c                         0x00000000   Number         0  _printf_hex_int.o ABSOLUTE
    ../clib/printf.c                         0x00000000   Number         0  _sputc.o ABSOLUTE
    ../clib/printf.c                         0x00000000   Number         0  _printf_hex_ll.o ABSOLUTE
    ../clib/printf_percent.s                 0x00000000   Number         0  _printf_d.o ABSOLUTE
    ../clib/printf_percent.s                 0x00000000   Number         0  _printf_percent_end.o ABSOLUTE
    ../clib/printf_percent.s                 0x00000000   Number         0  _printf_u.o ABSOLUTE
    ../clib/printf_percent.s                 0x00000000   Number         0  _printf_c.o ABSOLUTE
    ../clib/printf_percent.s                 0x00000000   Number         0  _printf_x.o ABSOLUTE
    ../clib/printf_percent.s                 0x00000000   Number         0  _printf_percent.o ABSOLUTE
    ../clib/signal.c                         0x00000000   Number         0  defsig_fpe_outer.o ABSOLUTE
    ../clib/signal.c                         0x00000000   Number         0  defsig_fpe_inner.o ABSOLUTE
    ../clib/signal.c                         0x00000000   Number         0  __raise.o ABSOLUTE
    ../clib/signal.c                         0x00000000   Number         0  defsig_exit.o ABSOLUTE
    ../clib/signal.c                         0x00000000   Number         0  defsig_other.o ABSOLUTE
    ../clib/signal.c                         0x00000000   Number         0  defsig_segv_inner.o ABSOLUTE
    ../clib/signal.c                         0x00000000   Number         0  defsig_cppl_inner.o ABSOLUTE
    ../clib/signal.c                         0x00000000   Number         0  defsig_pvfn_inner.o ABSOLUTE
    ../clib/signal.c                         0x00000000   Number         0  defsig_stak_inner.o ABSOLUTE
    ../clib/signal.c                         0x00000000   Number         0  defsig_rtmem_formal.o ABSOLUTE
    ../clib/signal.c                         0x00000000   Number         0  defsig_rtmem_outer.o ABSOLUTE
    ../clib/signal.c                         0x00000000   Number         0  defsig_rtmem_inner.o ABSOLUTE
    ../clib/signal.c                         0x00000000   Number         0  defsig_rtred_inner.o ABSOLUTE
    ../clib/signal.c                         0x00000000   Number         0  defsig_abrt_inner.o ABSOLUTE
    ../clib/signal.c                         0x00000000   Number         0  defsig_general.o ABSOLUTE
    ../clib/signal.c                         0x00000000   Number         0  defsig_fpe_formal.o ABSOLUTE
    ../clib/signal.s                         0x00000000   Number         0  defsig.o ABSOLUTE
    ../clib/stdio.c                          0x00000000   Number         0  ferror.o ABSOLUTE
    ../clib/stdio.c                          0x00000000   Number         0  ferror_locked.o ABSOLUTE
    ../clib/stdlib.c                         0x00000000   Number         0  exit.o ABSOLUTE
    ../clib/string.c                         0x00000000   Number         0  strcpy.o ABSOLUTE
    ../clib/string.c                         0x00000000   Number         0  strlen.o ABSOLUTE
    ../fplib/cfplib/cmpret.c                 0x00000000   Number         0  cmpret.o ABSOLUTE
    ../fplib/cfplib/d2f.c                    0x00000000   Number         0  d2f.o ABSOLUTE
    ../fplib/cfplib/daddsub.c                0x00000000   Number         0  daddsub.o ABSOLUTE
    ../fplib/cfplib/ddiv.c                   0x00000000   Number         0  ddiv.o ABSOLUTE
    ../fplib/cfplib/dmul.c                   0x00000000   Number         0  dmul.o ABSOLUTE
    ../fplib/cfplib/f2d.c                    0x00000000   Number         0  f2d.o ABSOLUTE
    ../fplib/cfplib/fcmpin.c                 0x00000000   Number         0  fcmpin.o ABSOLUTE
    ../fplib/cfplib/fdiv.c                   0x00000000   Number         0  fdiv.o ABSOLUTE
    ../fplib/cfplib/ffix.c                   0x00000000   Number         0  dfixui.o ABSOLUTE
    ../fplib/cfplib/fflt.c                   0x00000000   Number         0  dflti.o ABSOLUTE
    ../fplib/cfplib/fflt.c                   0x00000000   Number         0  fflti.o ABSOLUTE
    ../fplib/cfplib/fpinit.c                 0x00000000   Number         0  fpinit.o ABSOLUTE
    ../fplib/cfplib/nan2.c                   0x00000000   Number         0  fnan2.o ABSOLUTE
    ../fplib/cfplib/retnan.c                 0x00000000   Number         0  retnan.o ABSOLUTE
    ../fplib/fleqf6m.s                       0x00000000   Number         0  flef.o ABSOLUTE
    ../fplib/usenofp.s                       0x00000000   Number         0  usenofp.o ABSOLUTE
    ..\Drivers\CMSIS\Device\FM\FM33xx\Source\system_fm33lc0xx.c 0x00000000   Number         0  system_fm33lc0xx.o ABSOLUTE
    ..\Drivers\FM33LC0xx_FL_Driver\Src\fm33lc0xx_fl_adc.c 0x00000000   Number         0  fm33lc0xx_fl_adc.o ABSOLUTE
    ..\Drivers\FM33LC0xx_FL_Driver\Src\fm33lc0xx_fl_aes.c 0x00000000   Number         0  fm33lc0xx_fl_aes.o ABSOLUTE
    ..\Drivers\FM33LC0xx_FL_Driver\Src\fm33lc0xx_fl_atim.c 0x00000000   Number         0  fm33lc0xx_fl_atim.o ABSOLUTE
    ..\Drivers\FM33LC0xx_FL_Driver\Src\fm33lc0xx_fl_bstim32.c 0x00000000   Number         0  fm33lc0xx_fl_bstim32.o ABSOLUTE
    ..\Drivers\FM33LC0xx_FL_Driver\Src\fm33lc0xx_fl_comp.c 0x00000000   Number         0  fm33lc0xx_fl_comp.o ABSOLUTE
    ..\Drivers\FM33LC0xx_FL_Driver\Src\fm33lc0xx_fl_crc.c 0x00000000   Number         0  fm33lc0xx_fl_crc.o ABSOLUTE
    ..\Drivers\FM33LC0xx_FL_Driver\Src\fm33lc0xx_fl_divas.c 0x00000000   Number         0  fm33lc0xx_fl_divas.o ABSOLUTE
    ..\Drivers\FM33LC0xx_FL_Driver\Src\fm33lc0xx_fl_dma.c 0x00000000   Number         0  fm33lc0xx_fl_dma.o ABSOLUTE
    ..\Drivers\FM33LC0xx_FL_Driver\Src\fm33lc0xx_fl_flash.c 0x00000000   Number         0  fm33lc0xx_fl_flash.o ABSOLUTE
    ..\Drivers\FM33LC0xx_FL_Driver\Src\fm33lc0xx_fl_gpio.c 0x00000000   Number         0  fm33lc0xx_fl_gpio.o ABSOLUTE
    ..\Drivers\FM33LC0xx_FL_Driver\Src\fm33lc0xx_fl_gptim.c 0x00000000   Number         0  fm33lc0xx_fl_gptim.o ABSOLUTE
    ..\Drivers\FM33LC0xx_FL_Driver\Src\fm33lc0xx_fl_i2c.c 0x00000000   Number         0  fm33lc0xx_fl_i2c.o ABSOLUTE
    ..\Drivers\FM33LC0xx_FL_Driver\Src\fm33lc0xx_fl_iwdt.c 0x00000000   Number         0  fm33lc0xx_fl_iwdt.o ABSOLUTE
    ..\Drivers\FM33LC0xx_FL_Driver\Src\fm33lc0xx_fl_lptim32.c 0x00000000   Number         0  fm33lc0xx_fl_lptim32.o ABSOLUTE
    ..\Drivers\FM33LC0xx_FL_Driver\Src\fm33lc0xx_fl_lpuart.c 0x00000000   Number         0  fm33lc0xx_fl_lpuart.o ABSOLUTE
    ..\Drivers\FM33LC0xx_FL_Driver\Src\fm33lc0xx_fl_opa.c 0x00000000   Number         0  fm33lc0xx_fl_opa.o ABSOLUTE
    ..\Drivers\FM33LC0xx_FL_Driver\Src\fm33lc0xx_fl_pmu.c 0x00000000   Number         0  fm33lc0xx_fl_pmu.o ABSOLUTE
    ..\Drivers\FM33LC0xx_FL_Driver\Src\fm33lc0xx_fl_rcc.c 0x00000000   Number         0  fm33lc0xx_fl_rcc.o ABSOLUTE
    ..\Drivers\FM33LC0xx_FL_Driver\Src\fm33lc0xx_fl_rng.c 0x00000000   Number         0  fm33lc0xx_fl_rng.o ABSOLUTE
    ..\Drivers\FM33LC0xx_FL_Driver\Src\fm33lc0xx_fl_rtc.c 0x00000000   Number         0  fm33lc0xx_fl_rtc.o ABSOLUTE
    ..\Drivers\FM33LC0xx_FL_Driver\Src\fm33lc0xx_fl_spi.c 0x00000000   Number         0  fm33lc0xx_fl_spi.o ABSOLUTE
    ..\Drivers\FM33LC0xx_FL_Driver\Src\fm33lc0xx_fl_svd.c 0x00000000   Number         0  fm33lc0xx_fl_svd.o ABSOLUTE
    ..\Drivers\FM33LC0xx_FL_Driver\Src\fm33lc0xx_fl_u7816.c 0x00000000   Number         0  fm33lc0xx_fl_u7816.o ABSOLUTE
    ..\Drivers\FM33LC0xx_FL_Driver\Src\fm33lc0xx_fl_uart.c 0x00000000   Number         0  fm33lc0xx_fl_uart.o ABSOLUTE
    ..\Drivers\FM33LC0xx_FL_Driver\Src\fm33lc0xx_fl_wwdt.c 0x00000000   Number         0  fm33lc0xx_fl_wwdt.o ABSOLUTE
    ..\FreeRTOS\croutine.c                   0x00000000   Number         0  croutine.o ABSOLUTE
    ..\FreeRTOS\list.c                       0x00000000   Number         0  list.o ABSOLUTE
    ..\FreeRTOS\portable\MemMang\heap_4.c    0x00000000   Number         0  heap_4.o ABSOLUTE
    ..\FreeRTOS\portable\RVDS\ARM_CM0\port.c 0x00000000   Number         0  port.o ABSOLUTE
    ..\FreeRTOS\queue.c                      0x00000000   Number         0  queue.o ABSOLUTE
    ..\FreeRTOS\tasks.c                      0x00000000   Number         0  tasks.o ABSOLUTE
    ..\FreeRTOS\timers.c                     0x00000000   Number         0  timers.o ABSOLUTE
    ..\MF-config\Src\mf_config.c             0x00000000   Number         0  mf_config.o ABSOLUTE
    ..\Src\adc.c                             0x00000000   Number         0  adc.o ABSOLUTE
    ..\Src\bstim32_timing.c                  0x00000000   Number         0  bstim32_timing.o ABSOLUTE
    ..\Src\gpio.c                            0x00000000   Number         0  gpio.o ABSOLUTE
    ..\Src\lptim32_timing.c                  0x00000000   Number         0  lptim32_timing.o ABSOLUTE
    ..\Src\main.c                            0x00000000   Number         0  main.o ABSOLUTE
    ..\Src\taskadc.c                         0x00000000   Number         0  taskadc.o ABSOLUTE
    ..\Src\taskuart.c                        0x00000000   Number         0  taskuart.o ABSOLUTE
    ..\Src\uart.c                            0x00000000   Number         0  uart.o ABSOLUTE
    ..\Src\user_init.c                       0x00000000   Number         0  user_init.o ABSOLUTE
    ..\\Drivers\\CMSIS\\Device\\FM\\FM33xx\\Source\\system_fm33lc0xx.c 0x00000000   Number         0  system_fm33lc0xx.o ABSOLUTE
    ..\\Drivers\\FM33LC0xx_FL_Driver\\Src\\fm33lc0xx_fl_adc.c 0x00000000   Number         0  fm33lc0xx_fl_adc.o ABSOLUTE
    ..\\Drivers\\FM33LC0xx_FL_Driver\\Src\\fm33lc0xx_fl_aes.c 0x00000000   Number         0  fm33lc0xx_fl_aes.o ABSOLUTE
    ..\\Drivers\\FM33LC0xx_FL_Driver\\Src\\fm33lc0xx_fl_atim.c 0x00000000   Number         0  fm33lc0xx_fl_atim.o ABSOLUTE
    ..\\Drivers\\FM33LC0xx_FL_Driver\\Src\\fm33lc0xx_fl_bstim32.c 0x00000000   Number         0  fm33lc0xx_fl_bstim32.o ABSOLUTE
    ..\\Drivers\\FM33LC0xx_FL_Driver\\Src\\fm33lc0xx_fl_comp.c 0x00000000   Number         0  fm33lc0xx_fl_comp.o ABSOLUTE
    ..\\Drivers\\FM33LC0xx_FL_Driver\\Src\\fm33lc0xx_fl_crc.c 0x00000000   Number         0  fm33lc0xx_fl_crc.o ABSOLUTE
    ..\\Drivers\\FM33LC0xx_FL_Driver\\Src\\fm33lc0xx_fl_divas.c 0x00000000   Number         0  fm33lc0xx_fl_divas.o ABSOLUTE
    ..\\Drivers\\FM33LC0xx_FL_Driver\\Src\\fm33lc0xx_fl_dma.c 0x00000000   Number         0  fm33lc0xx_fl_dma.o ABSOLUTE
    ..\\Drivers\\FM33LC0xx_FL_Driver\\Src\\fm33lc0xx_fl_flash.c 0x00000000   Number         0  fm33lc0xx_fl_flash.o ABSOLUTE
    ..\\Drivers\\FM33LC0xx_FL_Driver\\Src\\fm33lc0xx_fl_gpio.c 0x00000000   Number         0  fm33lc0xx_fl_gpio.o ABSOLUTE
    ..\\Drivers\\FM33LC0xx_FL_Driver\\Src\\fm33lc0xx_fl_gptim.c 0x00000000   Number         0  fm33lc0xx_fl_gptim.o ABSOLUTE
    ..\\Drivers\\FM33LC0xx_FL_Driver\\Src\\fm33lc0xx_fl_i2c.c 0x00000000   Number         0  fm33lc0xx_fl_i2c.o ABSOLUTE
    ..\\Drivers\\FM33LC0xx_FL_Driver\\Src\\fm33lc0xx_fl_iwdt.c 0x00000000   Number         0  fm33lc0xx_fl_iwdt.o ABSOLUTE
    ..\\Drivers\\FM33LC0xx_FL_Driver\\Src\\fm33lc0xx_fl_lptim32.c 0x00000000   Number         0  fm33lc0xx_fl_lptim32.o ABSOLUTE
    ..\\Drivers\\FM33LC0xx_FL_Driver\\Src\\fm33lc0xx_fl_lpuart.c 0x00000000   Number         0  fm33lc0xx_fl_lpuart.o ABSOLUTE
    ..\\Drivers\\FM33LC0xx_FL_Driver\\Src\\fm33lc0xx_fl_opa.c 0x00000000   Number         0  fm33lc0xx_fl_opa.o ABSOLUTE
    ..\\Drivers\\FM33LC0xx_FL_Driver\\Src\\fm33lc0xx_fl_pmu.c 0x00000000   Number         0  fm33lc0xx_fl_pmu.o ABSOLUTE
    ..\\Drivers\\FM33LC0xx_FL_Driver\\Src\\fm33lc0xx_fl_rcc.c 0x00000000   Number         0  fm33lc0xx_fl_rcc.o ABSOLUTE
    ..\\Drivers\\FM33LC0xx_FL_Driver\\Src\\fm33lc0xx_fl_rng.c 0x00000000   Number         0  fm33lc0xx_fl_rng.o ABSOLUTE
    ..\\Drivers\\FM33LC0xx_FL_Driver\\Src\\fm33lc0xx_fl_rtc.c 0x00000000   Number         0  fm33lc0xx_fl_rtc.o ABSOLUTE
    ..\\Drivers\\FM33LC0xx_FL_Driver\\Src\\fm33lc0xx_fl_spi.c 0x00000000   Number         0  fm33lc0xx_fl_spi.o ABSOLUTE
    ..\\Drivers\\FM33LC0xx_FL_Driver\\Src\\fm33lc0xx_fl_svd.c 0x00000000   Number         0  fm33lc0xx_fl_svd.o ABSOLUTE
    ..\\Drivers\\FM33LC0xx_FL_Driver\\Src\\fm33lc0xx_fl_u7816.c 0x00000000   Number         0  fm33lc0xx_fl_u7816.o ABSOLUTE
    ..\\Drivers\\FM33LC0xx_FL_Driver\\Src\\fm33lc0xx_fl_uart.c 0x00000000   Number         0  fm33lc0xx_fl_uart.o ABSOLUTE
    ..\\Drivers\\FM33LC0xx_FL_Driver\\Src\\fm33lc0xx_fl_wwdt.c 0x00000000   Number         0  fm33lc0xx_fl_wwdt.o ABSOLUTE
    ..\\FreeRTOS\\portable\\RVDS\\ARM_CM0\\port.c 0x00000000   Number         0  port.o ABSOLUTE
    ..\\MF-config\\Src\\mf_config.c          0x00000000   Number         0  mf_config.o ABSOLUTE
    ..\\Src\\adc.c                           0x00000000   Number         0  adc.o ABSOLUTE
    ..\\Src\\bstim32_timing.c                0x00000000   Number         0  bstim32_timing.o ABSOLUTE
    ..\\Src\\gpio.c                          0x00000000   Number         0  gpio.o ABSOLUTE
    ..\\Src\\lptim32_timing.c                0x00000000   Number         0  lptim32_timing.o ABSOLUTE
    ..\\Src\\main.c                          0x00000000   Number         0  main.o ABSOLUTE
    ..\\Src\\taskadc.c                       0x00000000   Number         0  taskadc.o ABSOLUTE
    ..\\Src\\taskuart.c                      0x00000000   Number         0  taskuart.o ABSOLUTE
    ..\\Src\\uart.c                          0x00000000   Number         0  uart.o ABSOLUTE
    ..\\Src\\user_init.c                     0x00000000   Number         0  user_init.o ABSOLUTE
    dc.s                                     0x00000000   Number         0  dc.o ABSOLUTE
    !!!main                                  0x000000c0   Section        8  __main.o(!!!main)
    !!!scatter                               0x000000c8   Section       60  __scatter.o(!!!scatter)
    !!handler_copy                           0x00000104   Section       26  __scatter_copy.o(!!handler_copy)
    !!handler_zi                             0x00000120   Section       28  __scatter_zi.o(!!handler_zi)
    .ARM.Collect$$_printf_percent$$00000000  0x0000013c   Section        2  _printf_percent.o(.ARM.Collect$$_printf_percent$$00000000)
    .ARM.Collect$$_printf_percent$$00000009  0x0000013e   Section       10  _printf_d.o(.ARM.Collect$$_printf_percent$$00000009)
    .ARM.Collect$$_printf_percent$$0000000C  0x00000148   Section       10  _printf_x.o(.ARM.Collect$$_printf_percent$$0000000C)
    .ARM.Collect$$_printf_percent$$00000017  0x00000152   Section        4  _printf_percent_end.o(.ARM.Collect$$_printf_percent$$00000017)
    .ARM.Collect$$libinit$$00000000          0x00000156   Section        2  libinit.o(.ARM.Collect$$libinit$$00000000)
    .ARM.Collect$$libinit$$00000002          0x00000158   Section        0  libinit2.o(.ARM.Collect$$libinit$$00000002)
    .ARM.Collect$$libinit$$00000004          0x00000158   Section        0  libinit2.o(.ARM.Collect$$libinit$$00000004)
    .ARM.Collect$$libinit$$0000000A          0x00000158   Section        0  libinit2.o(.ARM.Collect$$libinit$$0000000A)
    .ARM.Collect$$libinit$$0000000C          0x00000158   Section        0  libinit2.o(.ARM.Collect$$libinit$$0000000C)
    .ARM.Collect$$libinit$$0000000E          0x00000158   Section        0  libinit2.o(.ARM.Collect$$libinit$$0000000E)
    .ARM.Collect$$libinit$$00000011          0x00000158   Section        0  libinit2.o(.ARM.Collect$$libinit$$00000011)
    .ARM.Collect$$libinit$$00000013          0x00000158   Section        0  libinit2.o(.ARM.Collect$$libinit$$00000013)
    .ARM.Collect$$libinit$$00000015          0x00000158   Section        0  libinit2.o(.ARM.Collect$$libinit$$00000015)
    .ARM.Collect$$libinit$$00000017          0x00000158   Section        0  libinit2.o(.ARM.Collect$$libinit$$00000017)
    .ARM.Collect$$libinit$$00000019          0x00000158   Section        0  libinit2.o(.ARM.Collect$$libinit$$00000019)
    .ARM.Collect$$libinit$$0000001B          0x00000158   Section        0  libinit2.o(.ARM.Collect$$libinit$$0000001B)
    .ARM.Collect$$libinit$$0000001D          0x00000158   Section        0  libinit2.o(.ARM.Collect$$libinit$$0000001D)
    .ARM.Collect$$libinit$$0000001F          0x00000158   Section        0  libinit2.o(.ARM.Collect$$libinit$$0000001F)
    .ARM.Collect$$libinit$$00000021          0x00000158   Section        0  libinit2.o(.ARM.Collect$$libinit$$00000021)
    .ARM.Collect$$libinit$$00000023          0x00000158   Section        0  libinit2.o(.ARM.Collect$$libinit$$00000023)
    .ARM.Collect$$libinit$$00000025          0x00000158   Section        0  libinit2.o(.ARM.Collect$$libinit$$00000025)
    .ARM.Collect$$libinit$$0000002C          0x00000158   Section        0  libinit2.o(.ARM.Collect$$libinit$$0000002C)
    .ARM.Collect$$libinit$$0000002E          0x00000158   Section        0  libinit2.o(.ARM.Collect$$libinit$$0000002E)
    .ARM.Collect$$libinit$$00000030          0x00000158   Section        0  libinit2.o(.ARM.Collect$$libinit$$00000030)
    .ARM.Collect$$libinit$$00000032          0x00000158   Section        0  libinit2.o(.ARM.Collect$$libinit$$00000032)
    .ARM.Collect$$libinit$$00000033          0x00000158   Section        2  libinit2.o(.ARM.Collect$$libinit$$00000033)
    .ARM.Collect$$libshutdown$$00000000      0x0000015a   Section        2  libshutdown.o(.ARM.Collect$$libshutdown$$00000000)
    .ARM.Collect$$libshutdown$$00000002      0x0000015c   Section        0  libshutdown2.o(.ARM.Collect$$libshutdown$$00000002)
    .ARM.Collect$$libshutdown$$00000004      0x0000015c   Section        0  libshutdown2.o(.ARM.Collect$$libshutdown$$00000004)
    .ARM.Collect$$libshutdown$$00000007      0x0000015c   Section        0  libshutdown2.o(.ARM.Collect$$libshutdown$$00000007)
    .ARM.Collect$$libshutdown$$0000000A      0x0000015c   Section        0  libshutdown2.o(.ARM.Collect$$libshutdown$$0000000A)
    .ARM.Collect$$libshutdown$$0000000C      0x0000015c   Section        0  libshutdown2.o(.ARM.Collect$$libshutdown$$0000000C)
    .ARM.Collect$$libshutdown$$0000000F      0x0000015c   Section        0  libshutdown2.o(.ARM.Collect$$libshutdown$$0000000F)
    .ARM.Collect$$libshutdown$$00000010      0x0000015c   Section        2  libshutdown2.o(.ARM.Collect$$libshutdown$$00000010)
    .ARM.Collect$$rtentry$$00000000          0x0000015e   Section        0  __rtentry.o(.ARM.Collect$$rtentry$$00000000)
    .ARM.Collect$$rtentry$$00000002          0x0000015e   Section        0  __rtentry2.o(.ARM.Collect$$rtentry$$00000002)
    .ARM.Collect$$rtentry$$00000004          0x0000015e   Section        6  __rtentry4.o(.ARM.Collect$$rtentry$$00000004)
    .ARM.Collect$$rtentry$$00000009          0x00000164   Section        0  __rtentry2.o(.ARM.Collect$$rtentry$$00000009)
    .ARM.Collect$$rtentry$$0000000A          0x00000164   Section        4  __rtentry2.o(.ARM.Collect$$rtentry$$0000000A)
    .ARM.Collect$$rtentry$$0000000C          0x00000168   Section        0  __rtentry2.o(.ARM.Collect$$rtentry$$0000000C)
    .ARM.Collect$$rtentry$$0000000D          0x00000168   Section        8  __rtentry2.o(.ARM.Collect$$rtentry$$0000000D)
    .ARM.Collect$$rtexit$$00000000           0x00000170   Section        2  rtexit.o(.ARM.Collect$$rtexit$$00000000)
    .ARM.Collect$$rtexit$$00000002           0x00000172   Section        0  rtexit2.o(.ARM.Collect$$rtexit$$00000002)
    .ARM.Collect$$rtexit$$00000003           0x00000172   Section        4  rtexit2.o(.ARM.Collect$$rtexit$$00000003)
    .ARM.Collect$$rtexit$$00000004           0x00000176   Section        6  rtexit2.o(.ARM.Collect$$rtexit$$00000004)
    .emb_text                                0x0000017c   Section      120  port.o(.emb_text)
    .emb_text                                0x000001f4   Section       56  rt_memcpy.o(.emb_text)
    .text                                    0x0000022c   Section       56  startup_fm33lc0xx.o(.text)
    .text                                    0x00000264   Section        2  use_no_semi_2.o(.text)
    .text                                    0x00000266   Section        0  lludiv.o(.text)
    .text                                    0x00000368   Section        0  noretval__2printf.o(.text)
    .text                                    0x00000384   Section        0  __printf.o(.text)
    .text                                    0x000003f0   Section        0  _printf_dec.o(.text)
    .text                                    0x0000045c   Section        0  _printf_hex_int.o(.text)
    .text                                    0x000004b4   Section        0  rt_memcpy.o(.text)
    .text                                    0x00000536   Section        0  aeabi_memset.o(.text)
    .text                                    0x00000548   Section        0  rt_memclr.o(.text)
    .text                                    0x00000588   Section      346  aeabi_sdiv.o(.text)
    .text                                    0x000006e2   Section        0  heapauxi.o(.text)
    .text                                    0x000006e8   Section        2  use_no_semi.o(.text)
    .text                                    0x000006ea   Section        0  _printf_intcommon.o(.text)
    .text                                    0x0000079c   Section        0  _printf_char_common.o(.text)
    _printf_input_char                       0x0000079d   Thumb Code    10  _printf_char_common.o(.text)
    .text                                    0x000007cc   Section        0  _printf_char_file.o(.text)
    .text                                    0x000007f4   Section        0  rtudiv10.o(.text)
    .text                                    0x0000081c   Section        0  ferror.o(.text)
    .text                                    0x00000824   Section       62  sys_stackheap_outer.o(.text)
    .text                                    0x00000862   Section        0  exit.o(.text)
    .text                                    0x00000874   Section        8  libspace.o(.text)
    i.ADC_IRQHandler                         0x0000087c   Section        0  adc.o(i.ADC_IRQHandler)
    i.AdcTask                                0x000008b4   Section        0  taskadc.o(i.AdcTask)
    i.BSTIM_IRQHandler                       0x00000910   Section        0  bstim32_timing.o(i.BSTIM_IRQHandler)
    i.DMA_IRQCallBack                        0x00000948   Section        0  taskuart.o(i.DMA_IRQCallBack)
    i.DMA_IRQHandler                         0x00000960   Section        0  uart.o(i.DMA_IRQHandler)
    i.DebugUartInit                          0x00000998   Section        0  user_init.o(i.DebugUartInit)
    i.DelayMs                                0x000009f8   Section        0  user_init.o(i.DelayMs)
    i.DelayUs                                0x00000a10   Section        0  user_init.o(i.DelayUs)
    i.FL_ADC_ClearFlag_EndOfConversion       0x00000a5c   Section        0  adc.o(i.FL_ADC_ClearFlag_EndOfConversion)
    FL_ADC_ClearFlag_EndOfConversion         0x00000a5d   Thumb Code     6  adc.o(i.FL_ADC_ClearFlag_EndOfConversion)
    i.FL_ADC_CommonInit                      0x00000a64   Section        0  fm33lc0xx_fl_adc.o(i.FL_ADC_CommonInit)
    i.FL_ADC_Disable                         0x00000ac0   Section        0  adc.o(i.FL_ADC_Disable)
    FL_ADC_Disable                           0x00000ac1   Thumb Code    10  adc.o(i.FL_ADC_Disable)
    i.FL_ADC_DisableSequencerChannel         0x00000aca   Section        0  adc.o(i.FL_ADC_DisableSequencerChannel)
    FL_ADC_DisableSequencerChannel           0x00000acb   Thumb Code    12  adc.o(i.FL_ADC_DisableSequencerChannel)
    i.FL_ADC_Enable                          0x00000ad6   Section        0  adc.o(i.FL_ADC_Enable)
    FL_ADC_Enable                            0x00000ad7   Thumb Code    10  adc.o(i.FL_ADC_Enable)
    i.FL_ADC_EnableSWConversion              0x00000ae0   Section        0  adc.o(i.FL_ADC_EnableSWConversion)
    FL_ADC_EnableSWConversion                0x00000ae1   Thumb Code    10  adc.o(i.FL_ADC_EnableSWConversion)
    i.FL_ADC_EnableSequencerChannel          0x00000aea   Section        0  adc.o(i.FL_ADC_EnableSequencerChannel)
    FL_ADC_EnableSequencerChannel            0x00000aeb   Thumb Code    12  adc.o(i.FL_ADC_EnableSequencerChannel)
    i.FL_ADC_Init                            0x00000af8   Section        0  fm33lc0xx_fl_adc.o(i.FL_ADC_Init)
    i.FL_ADC_IsActiveFlag_EndOfConversion    0x00000c9c   Section        0  adc.o(i.FL_ADC_IsActiveFlag_EndOfConversion)
    FL_ADC_IsActiveFlag_EndOfConversion      0x00000c9d   Thumb Code    16  adc.o(i.FL_ADC_IsActiveFlag_EndOfConversion)
    i.FL_ADC_ReadConversionData              0x00000cac   Section        0  adc.o(i.FL_ADC_ReadConversionData)
    FL_ADC_ReadConversionData                0x00000cad   Thumb Code     8  adc.o(i.FL_ADC_ReadConversionData)
    i.FL_BSTIM32_Init                        0x00000cb4   Section        0  fm33lc0xx_fl_bstim32.o(i.FL_BSTIM32_Init)
    i.FL_DMA_ClearFlag_TransferComplete      0x00000d3c   Section        0  uart.o(i.FL_DMA_ClearFlag_TransferComplete)
    FL_DMA_ClearFlag_TransferComplete        0x00000d3d   Thumb Code    10  uart.o(i.FL_DMA_ClearFlag_TransferComplete)
    i.FL_DMA_Init                            0x00000d48   Section        0  fm33lc0xx_fl_dma.o(i.FL_DMA_Init)
    i.FL_DMA_StartTransmission               0x00000ebc   Section        0  fm33lc0xx_fl_dma.o(i.FL_DMA_StartTransmission)
    i.FL_GPIO_DisablePinAnalogSwitch         0x00000f46   Section        0  fm33lc0xx_fl_gpio.o(i.FL_GPIO_DisablePinAnalogSwitch)
    FL_GPIO_DisablePinAnalogSwitch           0x00000f47   Thumb Code    10  fm33lc0xx_fl_gpio.o(i.FL_GPIO_DisablePinAnalogSwitch)
    i.FL_GPIO_DisablePinInput                0x00000f50   Section        0  fm33lc0xx_fl_gpio.o(i.FL_GPIO_DisablePinInput)
    FL_GPIO_DisablePinInput                  0x00000f51   Thumb Code    10  fm33lc0xx_fl_gpio.o(i.FL_GPIO_DisablePinInput)
    i.FL_GPIO_DisablePinOpenDrain            0x00000f5a   Section        0  fm33lc0xx_fl_gpio.o(i.FL_GPIO_DisablePinOpenDrain)
    FL_GPIO_DisablePinOpenDrain              0x00000f5b   Thumb Code    10  fm33lc0xx_fl_gpio.o(i.FL_GPIO_DisablePinOpenDrain)
    i.FL_GPIO_DisablePinPullup               0x00000f64   Section        0  fm33lc0xx_fl_gpio.o(i.FL_GPIO_DisablePinPullup)
    FL_GPIO_DisablePinPullup                 0x00000f65   Thumb Code    10  fm33lc0xx_fl_gpio.o(i.FL_GPIO_DisablePinPullup)
    i.FL_GPIO_DisablePinRemap                0x00000f6e   Section        0  fm33lc0xx_fl_gpio.o(i.FL_GPIO_DisablePinRemap)
    FL_GPIO_DisablePinRemap                  0x00000f6f   Thumb Code    10  fm33lc0xx_fl_gpio.o(i.FL_GPIO_DisablePinRemap)
    i.FL_GPIO_Init                           0x00000f78   Section        0  fm33lc0xx_fl_gpio.o(i.FL_GPIO_Init)
    i.FL_GPIO_ResetOutputPin                 0x00001068   Section        0  user_init.o(i.FL_GPIO_ResetOutputPin)
    FL_GPIO_ResetOutputPin                   0x00001069   Thumb Code    10  user_init.o(i.FL_GPIO_ResetOutputPin)
    i.FL_GPIO_SetPinMode                     0x00001072   Section        0  fm33lc0xx_fl_gpio.o(i.FL_GPIO_SetPinMode)
    FL_GPIO_SetPinMode                       0x00001073   Thumb Code    26  fm33lc0xx_fl_gpio.o(i.FL_GPIO_SetPinMode)
    i.FL_LPTIM32_Init                        0x0000108c   Section        0  fm33lc0xx_fl_lptim32.o(i.FL_LPTIM32_Init)
    i.FL_LPTIM32_SetETRTriggerEdge           0x00001170   Section        0  fm33lc0xx_fl_lptim32.o(i.FL_LPTIM32_SetETRTriggerEdge)
    FL_LPTIM32_SetETRTriggerEdge             0x00001171   Thumb Code    12  fm33lc0xx_fl_lptim32.o(i.FL_LPTIM32_SetETRTriggerEdge)
    i.FL_RCC_EnableGroup1OperationClock      0x0000117c   Section        0  fm33lc0xx_fl_uart.o(i.FL_RCC_EnableGroup1OperationClock)
    FL_RCC_EnableGroup1OperationClock        0x0000117d   Thumb Code    12  fm33lc0xx_fl_uart.o(i.FL_RCC_EnableGroup1OperationClock)
    i.FL_RCC_EnableGroup3BusClock            0x0000118c   Section        0  fm33lc0xx_fl_uart.o(i.FL_RCC_EnableGroup3BusClock)
    FL_RCC_EnableGroup3BusClock              0x0000118d   Thumb Code    12  fm33lc0xx_fl_uart.o(i.FL_RCC_EnableGroup3BusClock)
    i.FL_RCC_GetAHBClockFreq                 0x0000119c   Section        0  fm33lc0xx_fl_rcc.o(i.FL_RCC_GetAHBClockFreq)
    i.FL_RCC_GetAPB1ClockFreq                0x00001208   Section        0  fm33lc0xx_fl_rcc.o(i.FL_RCC_GetAPB1ClockFreq)
    i.FL_RCC_GetAPB2ClockFreq                0x00001274   Section        0  fm33lc0xx_fl_rcc.o(i.FL_RCC_GetAPB2ClockFreq)
    i.FL_RCC_GetPLLClockFreq                 0x000012e0   Section        0  fm33lc0xx_fl_rcc.o(i.FL_RCC_GetPLLClockFreq)
    i.FL_RCC_GetRC4MClockFreq                0x00001374   Section        0  fm33lc0xx_fl_rcc.o(i.FL_RCC_GetRC4MClockFreq)
    i.FL_RCC_GetRCHFClockFreq                0x000013c4   Section        0  fm33lc0xx_fl_rcc.o(i.FL_RCC_GetRCHFClockFreq)
    i.FL_RCC_GetSystemClockFreq              0x00001408   Section        0  fm33lc0xx_fl_rcc.o(i.FL_RCC_GetSystemClockFreq)
    i.FL_RCC_GetUSBClockFreqToSysclk         0x00001458   Section        0  fm33lc0xx_fl_rcc.o(i.FL_RCC_GetUSBClockFreqToSysclk)
    i.FL_RCC_SetADCPrescaler                 0x0000147c   Section        0  adc.o(i.FL_RCC_SetADCPrescaler)
    FL_RCC_SetADCPrescaler                   0x0000147d   Thumb Code    18  adc.o(i.FL_RCC_SetADCPrescaler)
    i.FL_UART_Init                           0x00001494   Section        0  fm33lc0xx_fl_uart.o(i.FL_UART_Init)
    i.GPIO_Init                              0x00001634   Section        0  gpio.o(i.GPIO_Init)
    i.GPIO_ToggleBits                        0x000016a8   Section        0  gpio.o(i.GPIO_ToggleBits)
    i.GetConvertSample                       0x000016d0   Section        0  adc.o(i.GetConvertSample)
    i.GetSingleChannelSample_POLL            0x000016f8   Section        0  adc.o(i.GetSingleChannelSample_POLL)
    GetSingleChannelSample_POLL              0x000016f9   Thumb Code   100  adc.o(i.GetSingleChannelSample_POLL)
    i.HardFault_Handler                      0x00001760   Section        0  main.o(i.HardFault_Handler)
    i.LPTIM_IRQHandler                       0x00001778   Section        0  lptim32_timing.o(i.LPTIM_IRQHandler)
    i.LedInit                                0x000017a8   Section        0  user_init.o(i.LedInit)
    i.LedTask                                0x00001808   Section        0  main.o(i.LedTask)
    i.MF_ADC_Common_Init                     0x00001824   Section        0  mf_config.o(i.MF_ADC_Common_Init)
    i.MF_ADC_Init                            0x0000183c   Section        0  mf_config.o(i.MF_ADC_Init)
    i.MF_BSTIM32_Init                        0x0000189c   Section        0  mf_config.o(i.MF_BSTIM32_Init)
    i.MF_Clock_Init                          0x000018d0   Section        0  mf_config.o(i.MF_Clock_Init)
    i.MF_Config_Init                         0x000018d2   Section        0  mf_config.o(i.MF_Config_Init)
    i.MF_LPTIM32_Init                        0x000018ec   Section        0  mf_config.o(i.MF_LPTIM32_Init)
    i.MF_NVIC_Init                           0x0000192c   Section        0  mf_config.o(i.MF_NVIC_Init)
    i.MF_SystemClock_Config                  0x0000193c   Section        0  mf_config.o(i.MF_SystemClock_Config)
    i.NVIC_DisableIRQ                        0x00001940   Section        0  uart.o(i.NVIC_DisableIRQ)
    NVIC_DisableIRQ                          0x00001941   Thumb Code    18  uart.o(i.NVIC_DisableIRQ)
    i.NVIC_EnableIRQ                         0x00001958   Section        0  uart.o(i.NVIC_EnableIRQ)
    NVIC_EnableIRQ                           0x00001959   Thumb Code    18  uart.o(i.NVIC_EnableIRQ)
    i.NVIC_Init                              0x00001970   Section        0  system_fm33lc0xx.o(i.NVIC_Init)
    i.NVIC_SetPriority                       0x000019b8   Section        0  uart.o(i.NVIC_SetPriority)
    NVIC_SetPriority                         0x000019b9   Thumb Code   110  uart.o(i.NVIC_SetPriority)
    i.NVIC_SetPriority                       0x00001a30   Section        0  system_fm33lc0xx.o(i.NVIC_SetPriority)
    NVIC_SetPriority                         0x00001a31   Thumb Code   110  system_fm33lc0xx.o(i.NVIC_SetPriority)
    i.SystemInit                             0x00001aa8   Section        0  system_fm33lc0xx.o(i.SystemInit)
    i.SystickInit                            0x00001b88   Section        0  user_init.o(i.SystickInit)
    SystickInit                              0x00001b89   Thumb Code    26  user_init.o(i.SystickInit)
    i.TimeStart                              0x00001ba8   Section        0  bstim32_timing.o(i.TimeStart)
    i.TimeStop                               0x00001bb4   Section        0  bstim32_timing.o(i.TimeStop)
    i.UARTx_DMA                              0x00001bc0   Section        0  uart.o(i.UARTx_DMA)
    i.UARTx_DMA_Rx                           0x00001c70   Section        0  uart.o(i.UARTx_DMA_Rx)
    i.UartTask                               0x00001cf4   Section        0  taskuart.o(i.UartTask)
    i.Uartx_Init                             0x00001d48   Section        0  uart.o(i.Uartx_Init)
    i.UserInit                               0x00001e74   Section        0  user_init.o(i.UserInit)
    i.__ARM_common_ll_muluu                  0x00001e84   Section        0  user_init.o(i.__ARM_common_ll_muluu)
    i.__ARM_common_switch8                   0x00001eb4   Section        0  fm33lc0xx_fl_lpuart.o(i.__ARM_common_switch8)
    i._sys_exit                              0x00001ed0   Section        0  user_init.o(i._sys_exit)
    i.fputc                                  0x00001ed4   Section        0  user_init.o(i.fputc)
    i.main                                   0x00001f04   Section        0  main.o(i.main)
    i.prvAddCurrentTaskToDelayedList         0x00001fac   Section        0  tasks.o(i.prvAddCurrentTaskToDelayedList)
    prvAddCurrentTaskToDelayedList           0x00001fad   Thumb Code   100  tasks.o(i.prvAddCurrentTaskToDelayedList)
    i.prvAddNewTaskToReadyList               0x00002028   Section        0  tasks.o(i.prvAddNewTaskToReadyList)
    prvAddNewTaskToReadyList                 0x00002029   Thumb Code   146  tasks.o(i.prvAddNewTaskToReadyList)
    i.prvCheckTasksWaitingTermination        0x000020d4   Section        0  tasks.o(i.prvCheckTasksWaitingTermination)
    prvCheckTasksWaitingTermination          0x000020d5   Thumb Code    60  tasks.o(i.prvCheckTasksWaitingTermination)
    i.prvCopyDataToQueue                     0x0000211c   Section        0  queue.o(i.prvCopyDataToQueue)
    prvCopyDataToQueue                       0x0000211d   Thumb Code   128  queue.o(i.prvCopyDataToQueue)
    i.prvDeleteTCB                           0x0000219c   Section        0  tasks.o(i.prvDeleteTCB)
    prvDeleteTCB                             0x0000219d   Thumb Code    18  tasks.o(i.prvDeleteTCB)
    i.prvGetDisinheritPriorityAfterTimeout   0x000021ae   Section        0  queue.o(i.prvGetDisinheritPriorityAfterTimeout)
    prvGetDisinheritPriorityAfterTimeout     0x000021af   Thumb Code    22  queue.o(i.prvGetDisinheritPriorityAfterTimeout)
    i.prvHeapInit                            0x000021c4   Section        0  heap_4.o(i.prvHeapInit)
    prvHeapInit                              0x000021c5   Thumb Code   100  heap_4.o(i.prvHeapInit)
    i.prvIdleTask                            0x00002240   Section        0  tasks.o(i.prvIdleTask)
    prvIdleTask                              0x00002241   Thumb Code    24  tasks.o(i.prvIdleTask)
    i.prvInitialiseNewQueue                  0x0000225c   Section        0  queue.o(i.prvInitialiseNewQueue)
    prvInitialiseNewQueue                    0x0000225d   Thumb Code    44  queue.o(i.prvInitialiseNewQueue)
    i.prvInitialiseNewTask                   0x00002288   Section        0  tasks.o(i.prvInitialiseNewTask)
    prvInitialiseNewTask                     0x00002289   Thumb Code   164  tasks.o(i.prvInitialiseNewTask)
    i.prvInitialiseTaskLists                 0x0000232c   Section        0  tasks.o(i.prvInitialiseTaskLists)
    prvInitialiseTaskLists                   0x0000232d   Thumb Code    68  tasks.o(i.prvInitialiseTaskLists)
    i.prvInsertBlockIntoFreeList             0x00002390   Section        0  heap_4.o(i.prvInsertBlockIntoFreeList)
    prvInsertBlockIntoFreeList               0x00002391   Thumb Code    96  heap_4.o(i.prvInsertBlockIntoFreeList)
    i.prvIsQueueEmpty                        0x000023f8   Section        0  queue.o(i.prvIsQueueEmpty)
    prvIsQueueEmpty                          0x000023f9   Thumb Code    28  queue.o(i.prvIsQueueEmpty)
    i.prvIsQueueFull                         0x00002414   Section        0  queue.o(i.prvIsQueueFull)
    prvIsQueueFull                           0x00002415   Thumb Code    30  queue.o(i.prvIsQueueFull)
    i.prvResetNextTaskUnblockTime            0x00002434   Section        0  tasks.o(i.prvResetNextTaskUnblockTime)
    prvResetNextTaskUnblockTime              0x00002435   Thumb Code    46  tasks.o(i.prvResetNextTaskUnblockTime)
    i.prvSetupTimerInterrupt                 0x0000246c   Section        0  port.o(i.prvSetupTimerInterrupt)
    prvSetupTimerInterrupt                   0x0000246d   Thumb Code    18  port.o(i.prvSetupTimerInterrupt)
    i.prvTaskExitError                       0x00002488   Section        0  port.o(i.prvTaskExitError)
    prvTaskExitError                         0x00002489   Thumb Code     6  port.o(i.prvTaskExitError)
    i.prvUnlockQueue                         0x0000248e   Section        0  queue.o(i.prvUnlockQueue)
    prvUnlockQueue                           0x0000248f   Thumb Code   142  queue.o(i.prvUnlockQueue)
    i.pvPortMalloc                           0x0000251c   Section        0  heap_4.o(i.pvPortMalloc)
    i.pvTaskIncrementMutexHeldCount          0x000025f0   Section        0  tasks.o(i.pvTaskIncrementMutexHeldCount)
    i.pxPortInitialiseStack                  0x00002610   Section        0  port.o(i.pxPortInitialiseStack)
    i.uxListRemove                           0x00002630   Section        0  list.o(i.uxListRemove)
    i.vApplicationIdleHook                   0x00002658   Section        0  main.o(i.vApplicationIdleHook)
    i.vListInitialise                        0x0000265a   Section        0  list.o(i.vListInitialise)
    i.vListInitialiseItem                    0x00002674   Section        0  list.o(i.vListInitialiseItem)
    i.vListInsert                            0x0000267a   Section        0  list.o(i.vListInsert)
    i.vListInsertEnd                         0x000026b0   Section        0  list.o(i.vListInsertEnd)
    i.vPortEnterCritical                     0x000026c8   Section        0  port.o(i.vPortEnterCritical)
    i.vPortExitCritical                      0x000026e4   Section        0  port.o(i.vPortExitCritical)
    i.vPortFree                              0x00002700   Section        0  heap_4.o(i.vPortFree)
    i.vPortSVCHandler                        0x00002750   Section        0  port.o(i.vPortSVCHandler)
    i.vPortYield                             0x00002754   Section        0  port.o(i.vPortYield)
    i.vTaskDelay                             0x0000276c   Section        0  tasks.o(i.vTaskDelay)
    i.vTaskInternalSetTimeOutState           0x00002794   Section        0  tasks.o(i.vTaskInternalSetTimeOutState)
    i.vTaskMissedYield                       0x000027ac   Section        0  tasks.o(i.vTaskMissedYield)
    i.vTaskPlaceOnEventList                  0x000027b8   Section        0  tasks.o(i.vTaskPlaceOnEventList)
    i.vTaskPriorityDisinheritAfterTimeout    0x000027d8   Section        0  tasks.o(i.vTaskPriorityDisinheritAfterTimeout)
    i.vTaskStartScheduler                    0x00002860   Section        0  tasks.o(i.vTaskStartScheduler)
    i.vTaskSuspendAll                        0x000028bc   Section        0  tasks.o(i.vTaskSuspendAll)
    i.vTaskSwitchContext                     0x000028cc   Section        0  tasks.o(i.vTaskSwitchContext)
    i.xPortStartScheduler                    0x00002980   Section        0  port.o(i.xPortStartScheduler)
    i.xPortSysTickHandler                    0x000029b8   Section        0  port.o(i.xPortSysTickHandler)
    i.xQueueCreateCountingSemaphore          0x000029dc   Section        0  queue.o(i.xQueueCreateCountingSemaphore)
    i.xQueueGenericCreate                    0x000029f8   Section        0  queue.o(i.xQueueGenericCreate)
    i.xQueueGenericReset                     0x00002a38   Section        0  queue.o(i.xQueueGenericReset)
    i.xQueueGenericSend                      0x00002ab0   Section        0  queue.o(i.xQueueGenericSend)
    i.xQueueGiveFromISR                      0x00002bac   Section        0  queue.o(i.xQueueGiveFromISR)
    i.xQueueSemaphoreTake                    0x00002c1a   Section        0  queue.o(i.xQueueSemaphoreTake)
    i.xTaskCheckForTimeOut                   0x00002d44   Section        0  tasks.o(i.xTaskCheckForTimeOut)
    i.xTaskCreate                            0x00002da4   Section        0  tasks.o(i.xTaskCreate)
    i.xTaskIncrementTick                     0x00002e00   Section        0  tasks.o(i.xTaskIncrementTick)
    i.xTaskPriorityDisinherit                0x00002f20   Section        0  tasks.o(i.xTaskPriorityDisinherit)
    i.xTaskPriorityInherit                   0x00002f80   Section        0  tasks.o(i.xTaskPriorityInherit)
    i.xTaskRemoveFromEventList               0x00003024   Section        0  tasks.o(i.xTaskRemoveFromEventList)
    i.xTaskResumeAll                         0x000030a4   Section        0  tasks.o(i.xTaskResumeAll)
    .constdata                               0x00003184   Section       40  _printf_hex_int.o(.constdata)
    uc_hextab                                0x00003184   Data          20  _printf_hex_int.o(.constdata)
    lc_hextab                                0x00003198   Data          20  _printf_hex_int.o(.constdata)
    .data                                    0x20000000   Section        8  adc.o(.data)
    .data                                    0x20000008   Section        4  taskuart.o(.data)
    xHigherPriorityTaskWoken                 0x20000008   Data           4  taskuart.o(.data)
    .data                                    0x2000000c   Section        8  main.o(.data)
    .data                                    0x20000014   Section        4  user_init.o(.data)
    .data                                    0x20000018   Section       68  tasks.o(.data)
    pxDelayedTaskList                        0x2000001c   Data           4  tasks.o(.data)
    pxOverflowDelayedTaskList                0x20000020   Data           4  tasks.o(.data)
    uxDeletedTasksWaitingCleanUp             0x20000024   Data           4  tasks.o(.data)
    uxCurrentNumberOfTasks                   0x20000028   Data           4  tasks.o(.data)
    xTickCount                               0x2000002c   Data           4  tasks.o(.data)
    uxTopReadyPriority                       0x20000030   Data           4  tasks.o(.data)
    xSchedulerRunning                        0x20000034   Data           4  tasks.o(.data)
    uxPendedTicks                            0x20000038   Data           4  tasks.o(.data)
    xYieldPending                            0x2000003c   Data           4  tasks.o(.data)
    xNumOfOverflows                          0x20000040   Data           4  tasks.o(.data)
    uxTaskNumber                             0x20000044   Data           4  tasks.o(.data)
    xNextTaskUnblockTime                     0x20000048   Data           4  tasks.o(.data)
    xIdleTaskHandle                          0x2000004c   Data           4  tasks.o(.data)
    uxSchedulerSuspended                     0x20000050   Data           4  tasks.o(.data)
    ulTaskSwitchedInTime                     0x20000054   Data           4  tasks.o(.data)
    ulTotalRunTime                           0x20000058   Data           4  tasks.o(.data)
    .data                                    0x2000005c   Section       24  heap_4.o(.data)
    xStart                                   0x2000005c   Data           8  heap_4.o(.data)
    pxEnd                                    0x20000064   Data           4  heap_4.o(.data)
    xFreeBytesRemaining                      0x20000068   Data           4  heap_4.o(.data)
    xMinimumEverFreeBytesRemaining           0x2000006c   Data           4  heap_4.o(.data)
    xBlockAllocatedBit                       0x20000070   Data           4  heap_4.o(.data)
    .data                                    0x20000074   Section        4  port.o(.data)
    uxCriticalNesting                        0x20000074   Data           4  port.o(.data)
    .bss                                     0x20000078   Section      100  main.o(.bss)
    .bss                                     0x200000dc   Section      300  tasks.o(.bss)
    pxReadyTasksLists                        0x200000dc   Data         200  tasks.o(.bss)
    xDelayedTaskList1                        0x200001a4   Data          20  tasks.o(.bss)
    xDelayedTaskList2                        0x200001b8   Data          20  tasks.o(.bss)
    xPendingReadyList                        0x200001cc   Data          20  tasks.o(.bss)
    xTasksWaitingTermination                 0x200001e0   Data          20  tasks.o(.bss)
    xSuspendedTaskList                       0x200001f4   Data          20  tasks.o(.bss)
    .bss                                     0x20000208   Section    10240  heap_4.o(.bss)
    ucHeap                                   0x20000208   Data       10240  heap_4.o(.bss)
    .bss                                     0x20002a08   Section       96  libspace.o(.bss)
    HEAP                                     0x20002a68   Section     2048  startup_fm33lc0xx.o(HEAP)
    Heap_Mem                                 0x20002a68   Data        2048  startup_fm33lc0xx.o(HEAP)
    STACK                                    0x20003268   Section     2048  startup_fm33lc0xx.o(STACK)
    Stack_Mem                                0x20003268   Data        2048  startup_fm33lc0xx.o(STACK)
    __initial_sp                             0x20003a68   Data           0  startup_fm33lc0xx.o(STACK)

    Global Symbols

    Symbol Name                              Value     Ov Type        Size  Object(Section)

    BuildAttributes$$THM_ISAv3M$S$PE$A:L22$X:L11$S22$IEEE1$IW$USESV6$~STKCKD$USESV7$~SHL$OSPACE$ROPI$EBA8$UX$STANDARDLIB$REQ8$PRES8$EABIv2 0x00000000   Number         0  anon$$obj.o ABSOLUTE
    __ARM_use_no_argv                        0x00000000   Number         0  main.o ABSOLUTE
    __Vectors                                0x00000000   Data           4  startup_fm33lc0xx.o(RESET)
    __ARM_exceptions_init                     - Undefined Weak Reference
    __alloca_initialize                       - Undefined Weak Reference
    __arm_preinit_                            - Undefined Weak Reference
    __cpp_initialize__aeabi_                  - Undefined Weak Reference
    __cxa_finalize                            - Undefined Weak Reference
    __rt_locale                               - Undefined Weak Reference
    __sigvec_lookup                           - Undefined Weak Reference
    _atexit_init                              - Undefined Weak Reference
    _call_atexit_fns                          - Undefined Weak Reference
    _clock_init                               - Undefined Weak Reference
    _fp_trap_init                             - Undefined Weak Reference
    _fp_trap_shutdown                         - Undefined Weak Reference
    _get_lc_collate                           - Undefined Weak Reference
    _get_lc_ctype                             - Undefined Weak Reference
    _get_lc_monetary                          - Undefined Weak Reference
    _get_lc_numeric                           - Undefined Weak Reference
    _get_lc_time                              - Undefined Weak Reference
    _getenv_init                              - Undefined Weak Reference
    _handle_redirection                       - Undefined Weak Reference
    _init_alloc                               - Undefined Weak Reference
    _init_user_alloc                          - Undefined Weak Reference
    _initio                                   - Undefined Weak Reference
    _mutex_acquire                            - Undefined Weak Reference
    _mutex_release                            - Undefined Weak Reference
    _printf_mbtowc                            - Undefined Weak Reference
    _printf_post_padding                      - Undefined Weak Reference
    _printf_pre_padding                       - Undefined Weak Reference
    _printf_truncate_signed                   - Undefined Weak Reference
    _printf_truncate_unsigned                 - Undefined Weak Reference
    _rand_init                                - Undefined Weak Reference
    _signal_finish                            - Undefined Weak Reference
    _signal_init                              - Undefined Weak Reference
    _terminate_alloc                          - Undefined Weak Reference
    _terminate_user_alloc                     - Undefined Weak Reference
    _terminateio                              - Undefined Weak Reference
    __Vectors_End                            0x000000c0   Data           0  startup_fm33lc0xx.o(RESET)
    __Vectors_Size                           0x000000c0   Number         0  startup_fm33lc0xx.o ABSOLUTE
    __main                                   0x000000c1   Thumb Code     8  __main.o(!!!main)
    __scatterload                            0x000000c9   Thumb Code     0  __scatter.o(!!!scatter)
    __scatterload_rt2                        0x000000c9   Thumb Code    52  __scatter.o(!!!scatter)
    __scatterload_rt2_thumb_only             0x000000c9   Thumb Code     0  __scatter.o(!!!scatter)
    __scatterload_null                       0x000000d9   Thumb Code     0  __scatter.o(!!!scatter)
    __scatterload_copy                       0x00000105   Thumb Code    26  __scatter_copy.o(!!handler_copy)
    __scatterload_zeroinit                   0x00000121   Thumb Code    28  __scatter_zi.o(!!handler_zi)
    _printf_percent                          0x0000013d   Thumb Code     0  _printf_percent.o(.ARM.Collect$$_printf_percent$$00000000)
    _printf_d                                0x0000013f   Thumb Code     0  _printf_d.o(.ARM.Collect$$_printf_percent$$00000009)
    _printf_x                                0x00000149   Thumb Code     0  _printf_x.o(.ARM.Collect$$_printf_percent$$0000000C)
    _printf_percent_end                      0x00000153   Thumb Code     0  _printf_percent_end.o(.ARM.Collect$$_printf_percent$$00000017)
    __rt_lib_init                            0x00000157   Thumb Code     0  libinit.o(.ARM.Collect$$libinit$$00000000)
    __rt_lib_init_alloca_1                   0x00000159   Thumb Code     0  libinit2.o(.ARM.Collect$$libinit$$0000002E)
    __rt_lib_init_argv_1                     0x00000159   Thumb Code     0  libinit2.o(.ARM.Collect$$libinit$$0000002C)
    __rt_lib_init_atexit_1                   0x00000159   Thumb Code     0  libinit2.o(.ARM.Collect$$libinit$$0000001B)
    __rt_lib_init_clock_1                    0x00000159   Thumb Code     0  libinit2.o(.ARM.Collect$$libinit$$00000021)
    __rt_lib_init_cpp_1                      0x00000159   Thumb Code     0  libinit2.o(.ARM.Collect$$libinit$$00000032)
    __rt_lib_init_exceptions_1               0x00000159   Thumb Code     0  libinit2.o(.ARM.Collect$$libinit$$00000030)
    __rt_lib_init_fp_1                       0x00000159   Thumb Code     0  libinit2.o(.ARM.Collect$$libinit$$00000002)
    __rt_lib_init_fp_trap_1                  0x00000159   Thumb Code     0  libinit2.o(.ARM.Collect$$libinit$$0000001F)
    __rt_lib_init_getenv_1                   0x00000159   Thumb Code     0  libinit2.o(.ARM.Collect$$libinit$$00000023)
    __rt_lib_init_heap_1                     0x00000159   Thumb Code     0  libinit2.o(.ARM.Collect$$libinit$$0000000A)
    __rt_lib_init_lc_collate_1               0x00000159   Thumb Code     0  libinit2.o(.ARM.Collect$$libinit$$00000011)
    __rt_lib_init_lc_ctype_1                 0x00000159   Thumb Code     0  libinit2.o(.ARM.Collect$$libinit$$00000013)
    __rt_lib_init_lc_monetary_1              0x00000159   Thumb Code     0  libinit2.o(.ARM.Collect$$libinit$$00000015)
    __rt_lib_init_lc_numeric_1               0x00000159   Thumb Code     0  libinit2.o(.ARM.Collect$$libinit$$00000017)
    __rt_lib_init_lc_time_1                  0x00000159   Thumb Code     0  libinit2.o(.ARM.Collect$$libinit$$00000019)
    __rt_lib_init_preinit_1                  0x00000159   Thumb Code     0  libinit2.o(.ARM.Collect$$libinit$$00000004)
    __rt_lib_init_rand_1                     0x00000159   Thumb Code     0  libinit2.o(.ARM.Collect$$libinit$$0000000E)
    __rt_lib_init_return                     0x00000159   Thumb Code     0  libinit2.o(.ARM.Collect$$libinit$$00000033)
    __rt_lib_init_signal_1                   0x00000159   Thumb Code     0  libinit2.o(.ARM.Collect$$libinit$$0000001D)
    __rt_lib_init_stdio_1                    0x00000159   Thumb Code     0  libinit2.o(.ARM.Collect$$libinit$$00000025)
    __rt_lib_init_user_alloc_1               0x00000159   Thumb Code     0  libinit2.o(.ARM.Collect$$libinit$$0000000C)
    __rt_lib_shutdown                        0x0000015b   Thumb Code     0  libshutdown.o(.ARM.Collect$$libshutdown$$00000000)
    __rt_lib_shutdown_cpp_1                  0x0000015d   Thumb Code     0  libshutdown2.o(.ARM.Collect$$libshutdown$$00000002)
    __rt_lib_shutdown_fp_trap_1              0x0000015d   Thumb Code     0  libshutdown2.o(.ARM.Collect$$libshutdown$$00000007)
    __rt_lib_shutdown_heap_1                 0x0000015d   Thumb Code     0  libshutdown2.o(.ARM.Collect$$libshutdown$$0000000F)
    __rt_lib_shutdown_return                 0x0000015d   Thumb Code     0  libshutdown2.o(.ARM.Collect$$libshutdown$$00000010)
    __rt_lib_shutdown_signal_1               0x0000015d   Thumb Code     0  libshutdown2.o(.ARM.Collect$$libshutdown$$0000000A)
    __rt_lib_shutdown_stdio_1                0x0000015d   Thumb Code     0  libshutdown2.o(.ARM.Collect$$libshutdown$$00000004)
    __rt_lib_shutdown_user_alloc_1           0x0000015d   Thumb Code     0  libshutdown2.o(.ARM.Collect$$libshutdown$$0000000C)
    __rt_entry                               0x0000015f   Thumb Code     0  __rtentry.o(.ARM.Collect$$rtentry$$00000000)
    __rt_entry_presh_1                       0x0000015f   Thumb Code     0  __rtentry2.o(.ARM.Collect$$rtentry$$00000002)
    __rt_entry_sh                            0x0000015f   Thumb Code     0  __rtentry4.o(.ARM.Collect$$rtentry$$00000004)
    __rt_entry_li                            0x00000165   Thumb Code     0  __rtentry2.o(.ARM.Collect$$rtentry$$0000000A)
    __rt_entry_postsh_1                      0x00000165   Thumb Code     0  __rtentry2.o(.ARM.Collect$$rtentry$$00000009)
    __rt_entry_main                          0x00000169   Thumb Code     0  __rtentry2.o(.ARM.Collect$$rtentry$$0000000D)
    __rt_entry_postli_1                      0x00000169   Thumb Code     0  __rtentry2.o(.ARM.Collect$$rtentry$$0000000C)
    __rt_exit                                0x00000171   Thumb Code     0  rtexit.o(.ARM.Collect$$rtexit$$00000000)
    __rt_exit_ls                             0x00000173   Thumb Code     0  rtexit2.o(.ARM.Collect$$rtexit$$00000003)
    __rt_exit_prels_1                        0x00000173   Thumb Code     0  rtexit2.o(.ARM.Collect$$rtexit$$00000002)
    __rt_exit_exit                           0x00000177   Thumb Code     0  rtexit2.o(.ARM.Collect$$rtexit$$00000004)
    __asm___6_port_c_39a90d8d__prvPortStartFirstTask 0x0000017d   Thumb Code    36  port.o(.emb_text)
    ulSetInterruptMaskFromISR                0x000001a5   Thumb Code     8  port.o(.emb_text)
    vClearInterruptMaskFromISR               0x000001ad   Thumb Code     6  port.o(.emb_text)
    xPortPendSVHandler                       0x000001b3   Thumb Code    62  port.o(.emb_text)
    __aeabi_memcpy4                          0x000001f5   Thumb Code    56  rt_memcpy.o(.emb_text)
    __aeabi_memcpy8                          0x000001f5   Thumb Code     0  rt_memcpy.o(.emb_text)
    Reset_Handler                            0x0000022d   Thumb Code     8  startup_fm33lc0xx.o(.text)
    NMI_Handler                              0x00000235   Thumb Code     2  startup_fm33lc0xx.o(.text)
    SVC_Handler                              0x00000239   Thumb Code     2  startup_fm33lc0xx.o(.text)
    PendSV_Handler                           0x0000023b   Thumb Code     2  startup_fm33lc0xx.o(.text)
    SysTick_Handler                          0x0000023d   Thumb Code     2  startup_fm33lc0xx.o(.text)
    AES_IRQHandler                           0x0000023f   Thumb Code     0  startup_fm33lc0xx.o(.text)
    ATIM_IRQHandler                          0x0000023f   Thumb Code     0  startup_fm33lc0xx.o(.text)
    COMPx_IRQHandler                         0x0000023f   Thumb Code     0  startup_fm33lc0xx.o(.text)
    FLASH_IRQHandler                         0x0000023f   Thumb Code     0  startup_fm33lc0xx.o(.text)
    GPIO_IRQHandler                          0x0000023f   Thumb Code     0  startup_fm33lc0xx.o(.text)
    GPTIM0_IRQHandler                        0x0000023f   Thumb Code     0  startup_fm33lc0xx.o(.text)
    GPTIM1_IRQHandler                        0x0000023f   Thumb Code     0  startup_fm33lc0xx.o(.text)
    HFDET_IRQHandler                         0x0000023f   Thumb Code     0  startup_fm33lc0xx.o(.text)
    I2C_IRQHandler                           0x0000023f   Thumb Code     0  startup_fm33lc0xx.o(.text)
    IWDT_IRQHandler                          0x0000023f   Thumb Code     0  startup_fm33lc0xx.o(.text)
    LCD_IRQHandler                           0x0000023f   Thumb Code     0  startup_fm33lc0xx.o(.text)
    LFDET_IRQHandler                         0x0000023f   Thumb Code     0  startup_fm33lc0xx.o(.text)
    LPUART0_IRQHandler                       0x0000023f   Thumb Code     0  startup_fm33lc0xx.o(.text)
    LPUART1_IRQHandler                       0x0000023f   Thumb Code     0  startup_fm33lc0xx.o(.text)
    OPAx_IRQHandler                          0x0000023f   Thumb Code     0  startup_fm33lc0xx.o(.text)
    RTC_IRQHandler                           0x0000023f   Thumb Code     0  startup_fm33lc0xx.o(.text)
    SPI1_IRQHandler                          0x0000023f   Thumb Code     0  startup_fm33lc0xx.o(.text)
    SPI2_IRQHandler                          0x0000023f   Thumb Code     0  startup_fm33lc0xx.o(.text)
    SVD_IRQHandler                           0x0000023f   Thumb Code     0  startup_fm33lc0xx.o(.text)
    U7816_IRQHandler                         0x0000023f   Thumb Code     0  startup_fm33lc0xx.o(.text)
    UART0_IRQHandler                         0x0000023f   Thumb Code     0  startup_fm33lc0xx.o(.text)
    UART1_IRQHandler                         0x0000023f   Thumb Code     0  startup_fm33lc0xx.o(.text)
    UART4_IRQHandler                         0x0000023f   Thumb Code     0  startup_fm33lc0xx.o(.text)
    UART5_IRQHandler                         0x0000023f   Thumb Code     0  startup_fm33lc0xx.o(.text)
    USB_IRQHandler                           0x0000023f   Thumb Code     0  startup_fm33lc0xx.o(.text)
    VREF_IRQHandler                          0x0000023f   Thumb Code     0  startup_fm33lc0xx.o(.text)
    WKUP_IRQHandler                          0x0000023f   Thumb Code     0  startup_fm33lc0xx.o(.text)
    WWDT_IRQHandler                          0x0000023f   Thumb Code     0  startup_fm33lc0xx.o(.text)
    __user_initial_stackheap                 0x00000241   Thumb Code     0  startup_fm33lc0xx.o(.text)
    __use_no_semihosting                     0x00000265   Thumb Code     2  use_no_semi_2.o(.text)
    __aeabi_uldivmod                         0x00000267   Thumb Code   258  lludiv.o(.text)
    _ll_udiv                                 0x00000267   Thumb Code     0  lludiv.o(.text)
    __2printf                                0x00000369   Thumb Code    22  noretval__2printf.o(.text)
    __printf                                 0x00000385   Thumb Code   108  __printf.o(.text)
    _printf_int_dec                          0x000003f1   Thumb Code    90  _printf_dec.o(.text)
    _printf_int_hex                          0x0000045d   Thumb Code    84  _printf_hex_int.o(.text)
    _printf_longlong_hex                     0x0000045d   Thumb Code     0  _printf_hex_int.o(.text)
    __aeabi_memcpy                           0x000004b5   Thumb Code   130  rt_memcpy.o(.text)
    __rt_memcpy                              0x000004b5   Thumb Code     0  rt_memcpy.o(.text)
    __aeabi_memset                           0x00000537   Thumb Code    18  aeabi_memset.o(.text)
    _memset_w                                0x00000549   Thumb Code    26  rt_memclr.o(.text)
    _memset                                  0x00000563   Thumb Code    30  rt_memclr.o(.text)
    __aeabi_memclr                           0x00000581   Thumb Code     4  rt_memclr.o(.text)
    __rt_memclr                              0x00000581   Thumb Code     0  rt_memclr.o(.text)
    __aeabi_memclr4                          0x00000585   Thumb Code     0  rt_memclr.o(.text)
    __aeabi_memclr8                          0x00000585   Thumb Code     0  rt_memclr.o(.text)
    __rt_memclr_w                            0x00000585   Thumb Code     4  rt_memclr.o(.text)
    __aeabi_uidiv                            0x00000589   Thumb Code     0  aeabi_sdiv.o(.text)
    __aeabi_uidivmod                         0x00000589   Thumb Code    20  aeabi_sdiv.o(.text)
    __aeabi_idiv                             0x0000059d   Thumb Code     0  aeabi_sdiv.o(.text)
    __aeabi_idivmod                          0x0000059d   Thumb Code   326  aeabi_sdiv.o(.text)
    __use_two_region_memory                  0x000006e3   Thumb Code     2  heapauxi.o(.text)
    __rt_heap_escrow$2region                 0x000006e5   Thumb Code     2  heapauxi.o(.text)
    __rt_heap_expand$2region                 0x000006e7   Thumb Code     2  heapauxi.o(.text)
    __I$use$semihosting                      0x000006e9   Thumb Code     0  use_no_semi.o(.text)
    __use_no_semihosting_swi                 0x000006e9   Thumb Code     2  use_no_semi.o(.text)
    _printf_int_common                       0x000006eb   Thumb Code   176  _printf_intcommon.o(.text)
    _printf_char_common                      0x000007a7   Thumb Code    32  _printf_char_common.o(.text)
    _printf_char_file                        0x000007cd   Thumb Code    34  _printf_char_file.o(.text)
    __rt_udiv10                              0x000007f5   Thumb Code    40  rtudiv10.o(.text)
    ferror                                   0x0000081d   Thumb Code     8  ferror.o(.text)
    __user_setup_stackheap                   0x00000825   Thumb Code    62  sys_stackheap_outer.o(.text)
    exit                                     0x00000863   Thumb Code    16  exit.o(.text)
    __user_libspace                          0x00000875   Thumb Code     8  libspace.o(.text)
    __user_perproc_libspace                  0x00000875   Thumb Code     0  libspace.o(.text)
    __user_perthread_libspace                0x00000875   Thumb Code     0  libspace.o(.text)
    ADC_IRQHandler                           0x0000087d   Thumb Code    46  adc.o(i.ADC_IRQHandler)
    AdcTask                                  0x000008b5   Thumb Code    66  taskadc.o(i.AdcTask)
    BSTIM_IRQHandler                         0x00000911   Thumb Code    50  bstim32_timing.o(i.BSTIM_IRQHandler)
    DMA_IRQCallBack                          0x00000949   Thumb Code    14  taskuart.o(i.DMA_IRQCallBack)
    DMA_IRQHandler                           0x00000961   Thumb Code    50  uart.o(i.DMA_IRQHandler)
    DebugUartInit                            0x00000999   Thumb Code    88  user_init.o(i.DebugUartInit)
    DelayMs                                  0x000009f9   Thumb Code    24  user_init.o(i.DelayMs)
    DelayUs                                  0x00000a11   Thumb Code    66  user_init.o(i.DelayUs)
    FL_ADC_CommonInit                        0x00000a65   Thumb Code    86  fm33lc0xx_fl_adc.o(i.FL_ADC_CommonInit)
    FL_ADC_Init                              0x00000af9   Thumb Code   416  fm33lc0xx_fl_adc.o(i.FL_ADC_Init)
    FL_BSTIM32_Init                          0x00000cb5   Thumb Code   130  fm33lc0xx_fl_bstim32.o(i.FL_BSTIM32_Init)
    FL_DMA_Init                              0x00000d49   Thumb Code   368  fm33lc0xx_fl_dma.o(i.FL_DMA_Init)
    FL_DMA_StartTransmission                 0x00000ebd   Thumb Code   138  fm33lc0xx_fl_dma.o(i.FL_DMA_StartTransmission)
    FL_GPIO_Init                             0x00000f79   Thumb Code   236  fm33lc0xx_fl_gpio.o(i.FL_GPIO_Init)
    FL_LPTIM32_Init                          0x0000108d   Thumb Code   220  fm33lc0xx_fl_lptim32.o(i.FL_LPTIM32_Init)
    FL_RCC_GetAHBClockFreq                   0x0000119d   Thumb Code   104  fm33lc0xx_fl_rcc.o(i.FL_RCC_GetAHBClockFreq)
    FL_RCC_GetAPB1ClockFreq                  0x00001209   Thumb Code   104  fm33lc0xx_fl_rcc.o(i.FL_RCC_GetAPB1ClockFreq)
    FL_RCC_GetAPB2ClockFreq                  0x00001275   Thumb Code   104  fm33lc0xx_fl_rcc.o(i.FL_RCC_GetAPB2ClockFreq)
    FL_RCC_GetPLLClockFreq                   0x000012e1   Thumb Code   140  fm33lc0xx_fl_rcc.o(i.FL_RCC_GetPLLClockFreq)
    FL_RCC_GetRC4MClockFreq                  0x00001375   Thumb Code    58  fm33lc0xx_fl_rcc.o(i.FL_RCC_GetRC4MClockFreq)
    FL_RCC_GetRCHFClockFreq                  0x000013c5   Thumb Code    50  fm33lc0xx_fl_rcc.o(i.FL_RCC_GetRCHFClockFreq)
    FL_RCC_GetSystemClockFreq                0x00001409   Thumb Code    72  fm33lc0xx_fl_rcc.o(i.FL_RCC_GetSystemClockFreq)
    FL_RCC_GetUSBClockFreqToSysclk           0x00001459   Thumb Code    22  fm33lc0xx_fl_rcc.o(i.FL_RCC_GetUSBClockFreqToSysclk)
    FL_UART_Init                             0x00001495   Thumb Code   396  fm33lc0xx_fl_uart.o(i.FL_UART_Init)
    GPIO_Init                                0x00001635   Thumb Code   112  gpio.o(i.GPIO_Init)
    GPIO_ToggleBits                          0x000016a9   Thumb Code    38  gpio.o(i.GPIO_ToggleBits)
    GetConvertSample                         0x000016d1   Thumb Code    34  adc.o(i.GetConvertSample)
    HardFault_Handler                        0x00001761   Thumb Code    10  main.o(i.HardFault_Handler)
    LPTIM_IRQHandler                         0x00001779   Thumb Code    44  lptim32_timing.o(i.LPTIM_IRQHandler)
    LedInit                                  0x000017a9   Thumb Code    92  user_init.o(i.LedInit)
    LedTask                                  0x00001809   Thumb Code    22  main.o(i.LedTask)
    MF_ADC_Common_Init                       0x00001825   Thumb Code    22  mf_config.o(i.MF_ADC_Common_Init)
    MF_ADC_Init                              0x0000183d   Thumb Code    86  mf_config.o(i.MF_ADC_Init)
    MF_BSTIM32_Init                          0x0000189d   Thumb Code    46  mf_config.o(i.MF_BSTIM32_Init)
    MF_Clock_Init                            0x000018d1   Thumb Code     2  mf_config.o(i.MF_Clock_Init)
    MF_Config_Init                           0x000018d3   Thumb Code    24  mf_config.o(i.MF_Config_Init)
    MF_LPTIM32_Init                          0x000018ed   Thumb Code    60  mf_config.o(i.MF_LPTIM32_Init)
    MF_NVIC_Init                             0x0000192d   Thumb Code    16  mf_config.o(i.MF_NVIC_Init)
    MF_SystemClock_Config                    0x0000193d   Thumb Code     2  mf_config.o(i.MF_SystemClock_Config)
    NVIC_Init                                0x00001971   Thumb Code    68  system_fm33lc0xx.o(i.NVIC_Init)
    SystemInit                               0x00001aa9   Thumb Code   208  system_fm33lc0xx.o(i.SystemInit)
    TimeStart                                0x00001ba9   Thumb Code     8  bstim32_timing.o(i.TimeStart)
    TimeStop                                 0x00001bb5   Thumb Code     6  bstim32_timing.o(i.TimeStop)
    UARTx_DMA                                0x00001bc1   Thumb Code   166  uart.o(i.UARTx_DMA)
    UARTx_DMA_Rx                             0x00001c71   Thumb Code   122  uart.o(i.UARTx_DMA_Rx)
    UartTask                                 0x00001cf5   Thumb Code    54  taskuart.o(i.UartTask)
    Uartx_Init                               0x00001d49   Thumb Code   292  uart.o(i.Uartx_Init)
    UserInit                                 0x00001e75   Thumb Code    16  user_init.o(i.UserInit)
    __ARM_common_ll_muluu                    0x00001e85   Thumb Code    48  user_init.o(i.__ARM_common_ll_muluu)
    __ARM_common_switch8                     0x00001eb5   Thumb Code    28  fm33lc0xx_fl_lpuart.o(i.__ARM_common_switch8)
    _sys_exit                                0x00001ed1   Thumb Code     4  user_init.o(i._sys_exit)
    fputc                                    0x00001ed5   Thumb Code    42  user_init.o(i.fputc)
    main                                     0x00001f05   Thumb Code   124  main.o(i.main)
    pvPortMalloc                             0x0000251d   Thumb Code   190  heap_4.o(i.pvPortMalloc)
    pvTaskIncrementMutexHeldCount            0x000025f1   Thumb Code    28  tasks.o(i.pvTaskIncrementMutexHeldCount)
    pxPortInitialiseStack                    0x00002611   Thumb Code    26  port.o(i.pxPortInitialiseStack)
    uxListRemove                             0x00002631   Thumb Code    40  list.o(i.uxListRemove)
    vApplicationIdleHook                     0x00002659   Thumb Code     2  main.o(i.vApplicationIdleHook)
    vListInitialise                          0x0000265b   Thumb Code    26  list.o(i.vListInitialise)
    vListInitialiseItem                      0x00002675   Thumb Code     6  list.o(i.vListInitialiseItem)
    vListInsert                              0x0000267b   Thumb Code    54  list.o(i.vListInsert)
    vListInsertEnd                           0x000026b1   Thumb Code    24  list.o(i.vListInsertEnd)
    vPortEnterCritical                       0x000026c9   Thumb Code    22  port.o(i.vPortEnterCritical)
    vPortExitCritical                        0x000026e5   Thumb Code    22  port.o(i.vPortExitCritical)
    vPortFree                                0x00002701   Thumb Code    70  heap_4.o(i.vPortFree)
    vPortSVCHandler                          0x00002751   Thumb Code     2  port.o(i.vPortSVCHandler)
    vPortYield                               0x00002755   Thumb Code    18  port.o(i.vPortYield)
    vTaskDelay                               0x0000276d   Thumb Code    38  tasks.o(i.vTaskDelay)
    vTaskInternalSetTimeOutState             0x00002795   Thumb Code    14  tasks.o(i.vTaskInternalSetTimeOutState)
    vTaskMissedYield                         0x000027ad   Thumb Code     8  tasks.o(i.vTaskMissedYield)
    vTaskPlaceOnEventList                    0x000027b9   Thumb Code    28  tasks.o(i.vTaskPlaceOnEventList)
    vTaskPriorityDisinheritAfterTimeout      0x000027d9   Thumb Code   128  tasks.o(i.vTaskPriorityDisinheritAfterTimeout)
    vTaskStartScheduler                      0x00002861   Thumb Code    62  tasks.o(i.vTaskStartScheduler)
    vTaskSuspendAll                          0x000028bd   Thumb Code    12  tasks.o(i.vTaskSuspendAll)
    vTaskSwitchContext                       0x000028cd   Thumb Code   152  tasks.o(i.vTaskSwitchContext)
    xPortStartScheduler                      0x00002981   Thumb Code    48  port.o(i.xPortStartScheduler)
    xPortSysTickHandler                      0x000029b9   Thumb Code    32  port.o(i.xPortSysTickHandler)
    xQueueCreateCountingSemaphore            0x000029dd   Thumb Code    28  queue.o(i.xQueueCreateCountingSemaphore)
    xQueueGenericCreate                      0x000029f9   Thumb Code    64  queue.o(i.xQueueGenericCreate)
    xQueueGenericReset                       0x00002a39   Thumb Code   120  queue.o(i.xQueueGenericReset)
    xQueueGenericSend                        0x00002ab1   Thumb Code   252  queue.o(i.xQueueGenericSend)
    xQueueGiveFromISR                        0x00002bad   Thumb Code   110  queue.o(i.xQueueGiveFromISR)
    xQueueSemaphoreTake                      0x00002c1b   Thumb Code   298  queue.o(i.xQueueSemaphoreTake)
    xTaskCheckForTimeOut                     0x00002d45   Thumb Code    86  tasks.o(i.xTaskCheckForTimeOut)
    xTaskCreate                              0x00002da5   Thumb Code    92  tasks.o(i.xTaskCreate)
    xTaskIncrementTick                       0x00002e01   Thumb Code   242  tasks.o(i.xTaskIncrementTick)
    xTaskPriorityDisinherit                  0x00002f21   Thumb Code    88  tasks.o(i.xTaskPriorityDisinherit)
    xTaskPriorityInherit                     0x00002f81   Thumb Code   150  tasks.o(i.xTaskPriorityInherit)
    xTaskRemoveFromEventList                 0x00003025   Thumb Code   102  tasks.o(i.xTaskRemoveFromEventList)
    xTaskResumeAll                           0x000030a5   Thumb Code   192  tasks.o(i.xTaskResumeAll)
    Region$$Table$$Base                      0x000031ac   Number         0  anon$$obj.o(Region$$Table)
    Region$$Table$$Limit                     0x000031cc   Number         0  anon$$obj.o(Region$$Table)
    ADCComplete                              0x20000000   Data           1  adc.o(.data)
    ADCbuffer                                0x20000002   Data           6  adc.o(.data)
    ADC_QueueHandle                          0x2000000c   Data           4  main.o(.data)
    dmaSemaphore                             0x20000010   Data           4  main.o(.data)
    __stdout                                 0x20000014   Data           4  user_init.o(.data)
    pxCurrentTCB                             0x20000018   Data           4  tasks.o(.data)
    TestRxData                               0x20000078   Data         100  main.o(.bss)
    __libspace_start                         0x20002a08   Data          96  libspace.o(.bss)
    __temporary_stack_top$libspace           0x20002a68   Data           0  libspace.o(.bss)



==============================================================================

Memory Map of the image

  Image Entry point : 0x000000c1

  Load Region LR_IROM1 (Base: 0x00000000, Size: 0x00003244, Max: 0x00040000, ABSOLUTE)

    Execution Region ER_IROM1 (Base: 0x00000000, Size: 0x000031cc, Max: 0x00040000, ABSOLUTE)

    Base Addr    Size         Type   Attr      Idx    E Section Name        Object

    0x00000000   0x000000c0   Data   RO            3    RESET               startup_fm33lc0xx.o
    0x000000c0   0x00000008   Code   RO         3224  * !!!main             c_p.l(__main.o)
    0x000000c8   0x0000003c   Code   RO         3445    !!!scatter          c_p.l(__scatter.o)
    0x00000104   0x0000001a   Code   RO         3447    !!handler_copy      c_p.l(__scatter_copy.o)
    0x0000011e   0x00000002   PAD
    0x00000120   0x0000001c   Code   RO         3449    !!handler_zi        c_p.l(__scatter_zi.o)
    0x0000013c   0x00000002   Code   RO         3205    .ARM.Collect$$_printf_percent$$00000000  c_p.l(_printf_percent.o)
    0x0000013e   0x0000000a   Code   RO         3203    .ARM.Collect$$_printf_percent$$00000009  c_p.l(_printf_d.o)
    0x00000148   0x0000000a   Code   RO         3202    .ARM.Collect$$_printf_percent$$0000000C  c_p.l(_printf_x.o)
    0x00000152   0x00000004   Code   RO         3269    .ARM.Collect$$_printf_percent$$00000017  c_p.l(_printf_percent_end.o)
    0x00000156   0x00000002   Code   RO         3316    .ARM.Collect$$libinit$$00000000  c_p.l(libinit.o)
    0x00000158   0x00000000   Code   RO         3332    .ARM.Collect$$libinit$$00000002  c_p.l(libinit2.o)
    0x00000158   0x00000000   Code   RO         3334    .ARM.Collect$$libinit$$00000004  c_p.l(libinit2.o)
    0x00000158   0x00000000   Code   RO         3337    .ARM.Collect$$libinit$$0000000A  c_p.l(libinit2.o)
    0x00000158   0x00000000   Code   RO         3339    .ARM.Collect$$libinit$$0000000C  c_p.l(libinit2.o)
    0x00000158   0x00000000   Code   RO         3341    .ARM.Collect$$libinit$$0000000E  c_p.l(libinit2.o)
    0x00000158   0x00000000   Code   RO         3344    .ARM.Collect$$libinit$$00000011  c_p.l(libinit2.o)
    0x00000158   0x00000000   Code   RO         3346    .ARM.Collect$$libinit$$00000013  c_p.l(libinit2.o)
    0x00000158   0x00000000   Code   RO         3348    .ARM.Collect$$libinit$$00000015  c_p.l(libinit2.o)
    0x00000158   0x00000000   Code   RO         3350    .ARM.Collect$$libinit$$00000017  c_p.l(libinit2.o)
    0x00000158   0x00000000   Code   RO         3352    .ARM.Collect$$libinit$$00000019  c_p.l(libinit2.o)
    0x00000158   0x00000000   Code   RO         3354    .ARM.Collect$$libinit$$0000001B  c_p.l(libinit2.o)
    0x00000158   0x00000000   Code   RO         3356    .ARM.Collect$$libinit$$0000001D  c_p.l(libinit2.o)
    0x00000158   0x00000000   Code   RO         3358    .ARM.Collect$$libinit$$0000001F  c_p.l(libinit2.o)
    0x00000158   0x00000000   Code   RO         3360    .ARM.Collect$$libinit$$00000021  c_p.l(libinit2.o)
    0x00000158   0x00000000   Code   RO         3362    .ARM.Collect$$libinit$$00000023  c_p.l(libinit2.o)
    0x00000158   0x00000000   Code   RO         3364    .ARM.Collect$$libinit$$00000025  c_p.l(libinit2.o)
    0x00000158   0x00000000   Code   RO         3368    .ARM.Collect$$libinit$$0000002C  c_p.l(libinit2.o)
    0x00000158   0x00000000   Code   RO         3370    .ARM.Collect$$libinit$$0000002E  c_p.l(libinit2.o)
    0x00000158   0x00000000   Code   RO         3372    .ARM.Collect$$libinit$$00000030  c_p.l(libinit2.o)
    0x00000158   0x00000000   Code   RO         3374    .ARM.Collect$$libinit$$00000032  c_p.l(libinit2.o)
    0x00000158   0x00000002   Code   RO         3375    .ARM.Collect$$libinit$$00000033  c_p.l(libinit2.o)
    0x0000015a   0x00000002   Code   RO         3401    .ARM.Collect$$libshutdown$$00000000  c_p.l(libshutdown.o)
    0x0000015c   0x00000000   Code   RO         3428    .ARM.Collect$$libshutdown$$00000002  c_p.l(libshutdown2.o)
    0x0000015c   0x00000000   Code   RO         3430    .ARM.Collect$$libshutdown$$00000004  c_p.l(libshutdown2.o)
    0x0000015c   0x00000000   Code   RO         3433    .ARM.Collect$$libshutdown$$00000007  c_p.l(libshutdown2.o)
    0x0000015c   0x00000000   Code   RO         3436    .ARM.Collect$$libshutdown$$0000000A  c_p.l(libshutdown2.o)
    0x0000015c   0x00000000   Code   RO         3438    .ARM.Collect$$libshutdown$$0000000C  c_p.l(libshutdown2.o)
    0x0000015c   0x00000000   Code   RO         3441    .ARM.Collect$$libshutdown$$0000000F  c_p.l(libshutdown2.o)
    0x0000015c   0x00000002   Code   RO         3442    .ARM.Collect$$libshutdown$$00000010  c_p.l(libshutdown2.o)
    0x0000015e   0x00000000   Code   RO         3250    .ARM.Collect$$rtentry$$00000000  c_p.l(__rtentry.o)
    0x0000015e   0x00000000   Code   RO         3276    .ARM.Collect$$rtentry$$00000002  c_p.l(__rtentry2.o)
    0x0000015e   0x00000006   Code   RO         3288    .ARM.Collect$$rtentry$$00000004  c_p.l(__rtentry4.o)
    0x00000164   0x00000000   Code   RO         3278    .ARM.Collect$$rtentry$$00000009  c_p.l(__rtentry2.o)
    0x00000164   0x00000004   Code   RO         3279    .ARM.Collect$$rtentry$$0000000A  c_p.l(__rtentry2.o)
    0x00000168   0x00000000   Code   RO         3281    .ARM.Collect$$rtentry$$0000000C  c_p.l(__rtentry2.o)
    0x00000168   0x00000008   Code   RO         3282    .ARM.Collect$$rtentry$$0000000D  c_p.l(__rtentry2.o)
    0x00000170   0x00000002   Code   RO         3323    .ARM.Collect$$rtexit$$00000000  c_p.l(rtexit.o)
    0x00000172   0x00000000   Code   RO         3377    .ARM.Collect$$rtexit$$00000002  c_p.l(rtexit2.o)
    0x00000172   0x00000004   Code   RO         3378    .ARM.Collect$$rtexit$$00000003  c_p.l(rtexit2.o)
    0x00000176   0x00000006   Code   RO         3379    .ARM.Collect$$rtexit$$00000004  c_p.l(rtexit2.o)
    0x0000017c   0x00000078   Code   RO         3068    .emb_text           port.o
    0x000001f4   0x00000038   Code   RO         3210    .emb_text           c_p.l(rt_memcpy.o)
    0x0000022c   0x00000038   Code   RO            4    .text               startup_fm33lc0xx.o
    0x00000264   0x00000002   Code   RO         3140    .text               c_p.l(use_no_semi_2.o)
    0x00000266   0x00000102   Code   RO         3144    .text               c_p.l(lludiv.o)
    0x00000368   0x0000001c   Code   RO         3150    .text               c_p.l(noretval__2printf.o)
    0x00000384   0x0000006c   Code   RO         3154    .text               c_p.l(__printf.o)
    0x000003f0   0x0000006c   Code   RO         3158    .text               c_p.l(_printf_dec.o)
    0x0000045c   0x00000058   Code   RO         3163    .text               c_p.l(_printf_hex_int.o)
    0x000004b4   0x00000082   Code   RO         3211    .text               c_p.l(rt_memcpy.o)
    0x00000536   0x00000012   Code   RO         3214    .text               c_p.l(aeabi_memset.o)
    0x00000548   0x00000040   Code   RO         3216    .text               c_p.l(rt_memclr.o)
    0x00000588   0x0000015a   Code   RO         3218    .text               c_p.l(aeabi_sdiv.o)
    0x000006e2   0x00000006   Code   RO         3222    .text               c_p.l(heapauxi.o)
    0x000006e8   0x00000002   Code   RO         3248    .text               c_p.l(use_no_semi.o)
    0x000006ea   0x000000b0   Code   RO         3259    .text               c_p.l(_printf_intcommon.o)
    0x0000079a   0x00000002   PAD
    0x0000079c   0x00000030   Code   RO         3261    .text               c_p.l(_printf_char_common.o)
    0x000007cc   0x00000028   Code   RO         3267    .text               c_p.l(_printf_char_file.o)
    0x000007f4   0x00000028   Code   RO         3270    .text               c_p.l(rtudiv10.o)
    0x0000081c   0x00000008   Code   RO         3294    .text               c_p.l(ferror.o)
    0x00000824   0x0000003e   Code   RO         3302    .text               c_p.l(sys_stackheap_outer.o)
    0x00000862   0x00000010   Code   RO         3305    .text               c_p.l(exit.o)
    0x00000872   0x00000002   PAD
    0x00000874   0x00000008   Code   RO         3319    .text               c_p.l(libspace.o)
    0x0000087c   0x00000038   Code   RO          190    i.ADC_IRQHandler    adc.o
    0x000008b4   0x0000005c   Code   RO          619    i.AdcTask           taskadc.o
    0x00000910   0x00000038   Code   RO          379    i.BSTIM_IRQHandler  bstim32_timing.o
    0x00000948   0x00000018   Code   RO          547    i.DMA_IRQCallBack   taskuart.o
    0x00000960   0x00000038   Code   RO          465    i.DMA_IRQHandler    uart.o
    0x00000998   0x00000060   Code   RO          686    i.DebugUartInit     user_init.o
    0x000009f8   0x00000018   Code   RO          687    i.DelayMs           user_init.o
    0x00000a10   0x0000004c   Code   RO          688    i.DelayUs           user_init.o
    0x00000a5c   0x00000006   Code   RO          191    i.FL_ADC_ClearFlag_EndOfConversion  adc.o
    0x00000a62   0x00000002   PAD
    0x00000a64   0x0000005c   Code   RO          830    i.FL_ADC_CommonInit  fm33lc0xx_fl_adc.o
    0x00000ac0   0x0000000a   Code   RO          192    i.FL_ADC_Disable    adc.o
    0x00000aca   0x0000000c   Code   RO          193    i.FL_ADC_DisableSequencerChannel  adc.o
    0x00000ad6   0x0000000a   Code   RO          194    i.FL_ADC_Enable     adc.o
    0x00000ae0   0x0000000a   Code   RO          195    i.FL_ADC_EnableSWConversion  adc.o
    0x00000aea   0x0000000c   Code   RO          196    i.FL_ADC_EnableSequencerChannel  adc.o
    0x00000af6   0x00000002   PAD
    0x00000af8   0x000001a4   Code   RO          833    i.FL_ADC_Init       fm33lc0xx_fl_adc.o
    0x00000c9c   0x00000010   Code   RO          197    i.FL_ADC_IsActiveFlag_EndOfConversion  adc.o
    0x00000cac   0x00000008   Code   RO          198    i.FL_ADC_ReadConversionData  adc.o
    0x00000cb4   0x00000088   Code   RO         1078    i.FL_BSTIM32_Init   fm33lc0xx_fl_bstim32.o
    0x00000d3c   0x0000000a   Code   RO          467    i.FL_DMA_ClearFlag_TransferComplete  uart.o
    0x00000d46   0x00000002   PAD
    0x00000d48   0x00000174   Code   RO         1191    i.FL_DMA_Init       fm33lc0xx_fl_dma.o
    0x00000ebc   0x0000008a   Code   RO         1192    i.FL_DMA_StartTransmission  fm33lc0xx_fl_dma.o
    0x00000f46   0x0000000a   Code   RO         1429    i.FL_GPIO_DisablePinAnalogSwitch  fm33lc0xx_fl_gpio.o
    0x00000f50   0x0000000a   Code   RO         1430    i.FL_GPIO_DisablePinInput  fm33lc0xx_fl_gpio.o
    0x00000f5a   0x0000000a   Code   RO         1431    i.FL_GPIO_DisablePinOpenDrain  fm33lc0xx_fl_gpio.o
    0x00000f64   0x0000000a   Code   RO         1432    i.FL_GPIO_DisablePinPullup  fm33lc0xx_fl_gpio.o
    0x00000f6e   0x0000000a   Code   RO         1433    i.FL_GPIO_DisablePinRemap  fm33lc0xx_fl_gpio.o
    0x00000f78   0x000000f0   Code   RO         1435    i.FL_GPIO_Init      fm33lc0xx_fl_gpio.o
    0x00001068   0x0000000a   Code   RO          689    i.FL_GPIO_ResetOutputPin  user_init.o
    0x00001072   0x0000001a   Code   RO         1436    i.FL_GPIO_SetPinMode  fm33lc0xx_fl_gpio.o
    0x0000108c   0x000000e4   Code   RO         1788    i.FL_LPTIM32_Init   fm33lc0xx_fl_lptim32.o
    0x00001170   0x0000000c   Code   RO         1792    i.FL_LPTIM32_SetETRTriggerEdge  fm33lc0xx_fl_lptim32.o
    0x0000117c   0x00000010   Code   RO         2286    i.FL_RCC_EnableGroup1OperationClock  fm33lc0xx_fl_uart.o
    0x0000118c   0x00000010   Code   RO         2287    i.FL_RCC_EnableGroup3BusClock  fm33lc0xx_fl_uart.o
    0x0000119c   0x0000006c   Code   RO         1990    i.FL_RCC_GetAHBClockFreq  fm33lc0xx_fl_rcc.o
    0x00001208   0x0000006c   Code   RO         1991    i.FL_RCC_GetAPB1ClockFreq  fm33lc0xx_fl_rcc.o
    0x00001274   0x0000006c   Code   RO         1992    i.FL_RCC_GetAPB2ClockFreq  fm33lc0xx_fl_rcc.o
    0x000012e0   0x00000094   Code   RO         1993    i.FL_RCC_GetPLLClockFreq  fm33lc0xx_fl_rcc.o
    0x00001374   0x00000050   Code   RO         1994    i.FL_RCC_GetRC4MClockFreq  fm33lc0xx_fl_rcc.o
    0x000013c4   0x00000044   Code   RO         1995    i.FL_RCC_GetRCHFClockFreq  fm33lc0xx_fl_rcc.o
    0x00001408   0x00000050   Code   RO         1996    i.FL_RCC_GetSystemClockFreq  fm33lc0xx_fl_rcc.o
    0x00001458   0x00000024   Code   RO         1997    i.FL_RCC_GetUSBClockFreqToSysclk  fm33lc0xx_fl_rcc.o
    0x0000147c   0x00000018   Code   RO          199    i.FL_RCC_SetADCPrescaler  adc.o
    0x00001494   0x000001a0   Code   RO         2293    i.FL_UART_Init      fm33lc0xx_fl_uart.o
    0x00001634   0x00000074   Code   RO          587    i.GPIO_Init         gpio.o
    0x000016a8   0x00000026   Code   RO          588    i.GPIO_ToggleBits   gpio.o
    0x000016ce   0x00000002   PAD
    0x000016d0   0x00000028   Code   RO          202    i.GetConvertSample  adc.o
    0x000016f8   0x00000068   Code   RO          204    i.GetSingleChannelSample_POLL  adc.o
    0x00001760   0x00000018   Code   RO          640    i.HardFault_Handler  main.o
    0x00001778   0x00000030   Code   RO          429    i.LPTIM_IRQHandler  lptim32_timing.o
    0x000017a8   0x00000060   Code   RO          692    i.LedInit           user_init.o
    0x00001808   0x0000001c   Code   RO          641    i.LedTask           main.o
    0x00001824   0x00000016   Code   RO           13    i.MF_ADC_Common_Init  mf_config.o
    0x0000183a   0x00000002   PAD
    0x0000183c   0x00000060   Code   RO           14    i.MF_ADC_Init       mf_config.o
    0x0000189c   0x00000034   Code   RO           15    i.MF_BSTIM32_Init   mf_config.o
    0x000018d0   0x00000002   Code   RO           16    i.MF_Clock_Init     mf_config.o
    0x000018d2   0x00000018   Code   RO           17    i.MF_Config_Init    mf_config.o
    0x000018ea   0x00000002   PAD
    0x000018ec   0x00000040   Code   RO           18    i.MF_LPTIM32_Init   mf_config.o
    0x0000192c   0x00000010   Code   RO           19    i.MF_NVIC_Init      mf_config.o
    0x0000193c   0x00000002   Code   RO           20    i.MF_SystemClock_Config  mf_config.o
    0x0000193e   0x00000002   PAD
    0x00001940   0x00000018   Code   RO          468    i.NVIC_DisableIRQ   uart.o
    0x00001958   0x00000018   Code   RO          469    i.NVIC_EnableIRQ    uart.o
    0x00001970   0x00000048   Code   RO          786    i.NVIC_Init         system_fm33lc0xx.o
    0x000019b8   0x00000078   Code   RO          470    i.NVIC_SetPriority  uart.o
    0x00001a30   0x00000078   Code   RO          787    i.NVIC_SetPriority  system_fm33lc0xx.o
    0x00001aa8   0x000000e0   Code   RO          789    i.SystemInit        system_fm33lc0xx.o
    0x00001b88   0x00000020   Code   RO          693    i.SystickInit       user_init.o
    0x00001ba8   0x0000000c   Code   RO          380    i.TimeStart         bstim32_timing.o
    0x00001bb4   0x0000000c   Code   RO          381    i.TimeStop          bstim32_timing.o
    0x00001bc0   0x000000b0   Code   RO          471    i.UARTx_DMA         uart.o
    0x00001c70   0x00000084   Code   RO          472    i.UARTx_DMA_Rx      uart.o
    0x00001cf4   0x00000054   Code   RO          548    i.UartTask          taskuart.o
    0x00001d48   0x0000012c   Code   RO          473    i.Uartx_Init        uart.o
    0x00001e74   0x00000010   Code   RO          694    i.UserInit          user_init.o
    0x00001e84   0x00000030   Code   RO          766    i.__ARM_common_ll_muluu  user_init.o
    0x00001eb4   0x0000001c   Code   RO         1904    i.__ARM_common_switch8  fm33lc0xx_fl_lpuart.o
    0x00001ed0   0x00000004   Code   RO          695    i._sys_exit         user_init.o
    0x00001ed4   0x00000030   Code   RO          696    i.fputc             user_init.o
    0x00001f04   0x000000a8   Code   RO          642    i.main              main.o
    0x00001fac   0x0000007c   Code   RO         2650    i.prvAddCurrentTaskToDelayedList  tasks.o
    0x00002028   0x000000ac   Code   RO         2651    i.prvAddNewTaskToReadyList  tasks.o
    0x000020d4   0x00000048   Code   RO         2652    i.prvCheckTasksWaitingTermination  tasks.o
    0x0000211c   0x00000080   Code   RO         2471    i.prvCopyDataToQueue  queue.o
    0x0000219c   0x00000012   Code   RO         2653    i.prvDeleteTCB      tasks.o
    0x000021ae   0x00000016   Code   RO         2472    i.prvGetDisinheritPriorityAfterTimeout  queue.o
    0x000021c4   0x0000007c   Code   RO         3019    i.prvHeapInit       heap_4.o
    0x00002240   0x0000001c   Code   RO         2654    i.prvIdleTask       tasks.o
    0x0000225c   0x0000002c   Code   RO         2474    i.prvInitialiseNewQueue  queue.o
    0x00002288   0x000000a4   Code   RO         2655    i.prvInitialiseNewTask  tasks.o
    0x0000232c   0x00000064   Code   RO         2656    i.prvInitialiseTaskLists  tasks.o
    0x00002390   0x00000068   Code   RO         3020    i.prvInsertBlockIntoFreeList  heap_4.o
    0x000023f8   0x0000001c   Code   RO         2475    i.prvIsQueueEmpty   queue.o
    0x00002414   0x0000001e   Code   RO         2476    i.prvIsQueueFull    queue.o
    0x00002432   0x00000002   PAD
    0x00002434   0x00000038   Code   RO         2658    i.prvResetNextTaskUnblockTime  tasks.o
    0x0000246c   0x0000001c   Code   RO         3069    i.prvSetupTimerInterrupt  port.o
    0x00002488   0x00000006   Code   RO         3070    i.prvTaskExitError  port.o
    0x0000248e   0x0000008e   Code   RO         2477    i.prvUnlockQueue    queue.o
    0x0000251c   0x000000d4   Code   RO         3021    i.pvPortMalloc      heap_4.o
    0x000025f0   0x00000020   Code   RO         2662    i.pvTaskIncrementMutexHeldCount  tasks.o
    0x00002610   0x00000020   Code   RO         3071    i.pxPortInitialiseStack  port.o
    0x00002630   0x00000028   Code   RO         2422    i.uxListRemove      list.o
    0x00002658   0x00000002   Code   RO          643    i.vApplicationIdleHook  main.o
    0x0000265a   0x0000001a   Code   RO         2423    i.vListInitialise   list.o
    0x00002674   0x00000006   Code   RO         2424    i.vListInitialiseItem  list.o
    0x0000267a   0x00000036   Code   RO         2425    i.vListInsert       list.o
    0x000026b0   0x00000018   Code   RO         2426    i.vListInsertEnd    list.o
    0x000026c8   0x0000001c   Code   RO         3073    i.vPortEnterCritical  port.o
    0x000026e4   0x0000001c   Code   RO         3074    i.vPortExitCritical  port.o
    0x00002700   0x00000050   Code   RO         3022    i.vPortFree         heap_4.o
    0x00002750   0x00000002   Code   RO         3075    i.vPortSVCHandler   port.o
    0x00002752   0x00000002   PAD
    0x00002754   0x00000018   Code   RO         3076    i.vPortYield        port.o
    0x0000276c   0x00000026   Code   RO         2670    i.vTaskDelay        tasks.o
    0x00002792   0x00000002   PAD
    0x00002794   0x00000018   Code   RO         2676    i.vTaskInternalSetTimeOutState  tasks.o
    0x000027ac   0x0000000c   Code   RO         2678    i.vTaskMissedYield  tasks.o
    0x000027b8   0x00000020   Code   RO         2680    i.vTaskPlaceOnEventList  tasks.o
    0x000027d8   0x00000088   Code   RO         2682    i.vTaskPriorityDisinheritAfterTimeout  tasks.o
    0x00002860   0x0000005c   Code   RO         2688    i.vTaskStartScheduler  tasks.o
    0x000028bc   0x00000010   Code   RO         2690    i.vTaskSuspendAll   tasks.o
    0x000028cc   0x000000b4   Code   RO         2691    i.vTaskSwitchContext  tasks.o
    0x00002980   0x00000038   Code   RO         3077    i.xPortStartScheduler  port.o
    0x000029b8   0x00000024   Code   RO         3078    i.xPortSysTickHandler  port.o
    0x000029dc   0x0000001c   Code   RO         2485    i.xQueueCreateCountingSemaphore  queue.o
    0x000029f8   0x00000040   Code   RO         2487    i.xQueueGenericCreate  queue.o
    0x00002a38   0x00000078   Code   RO         2488    i.xQueueGenericReset  queue.o
    0x00002ab0   0x000000fc   Code   RO         2489    i.xQueueGenericSend  queue.o
    0x00002bac   0x0000006e   Code   RO         2491    i.xQueueGiveFromISR  queue.o
    0x00002c1a   0x0000012a   Code   RO         2498    i.xQueueSemaphoreTake  queue.o
    0x00002d44   0x00000060   Code   RO         2692    i.xTaskCheckForTimeOut  tasks.o
    0x00002da4   0x0000005c   Code   RO         2693    i.xTaskCreate       tasks.o
    0x00002e00   0x00000120   Code   RO         2699    i.xTaskIncrementTick  tasks.o
    0x00002f20   0x00000060   Code   RO         2702    i.xTaskPriorityDisinherit  tasks.o
    0x00002f80   0x000000a4   Code   RO         2703    i.xTaskPriorityInherit  tasks.o
    0x00003024   0x00000080   Code   RO         2704    i.xTaskRemoveFromEventList  tasks.o
    0x000030a4   0x000000e0   Code   RO         2705    i.xTaskResumeAll    tasks.o
    0x00003184   0x00000028   Data   RO         3164    .constdata          c_p.l(_printf_hex_int.o)
    0x000031ac   0x00000020   Data   RO         3443    Region$$Table       anon$$obj.o


    Execution Region RW_IRAM1 (Base: 0x20000000, Size: 0x00003a68, Max: 0x00006000, ABSOLUTE)

    Base Addr    Size         Type   Attr      Idx    E Section Name        Object

    0x20000000   0x00000008   Data   RW          211    .data               adc.o
    0x20000008   0x00000004   Data   RW          549    .data               taskuart.o
    0x2000000c   0x00000008   Data   RW          645    .data               main.o
    0x20000014   0x00000004   Data   RW          697    .data               user_init.o
    0x20000018   0x00000044   Data   RW         2708    .data               tasks.o
    0x2000005c   0x00000018   Data   RW         3027    .data               heap_4.o
    0x20000074   0x00000004   Data   RW         3079    .data               port.o
    0x20000078   0x00000064   Zero   RW          644    .bss                main.o
    0x200000dc   0x0000012c   Zero   RW         2707    .bss                tasks.o
    0x20000208   0x00002800   Zero   RW         3026    .bss                heap_4.o
    0x20002a08   0x00000060   Zero   RW         3320    .bss                c_p.l(libspace.o)
    0x20002a68   0x00000800   Zero   RW            2    HEAP                startup_fm33lc0xx.o
    0x20003268   0x00000800   Zero   RW            1    STACK               startup_fm33lc0xx.o


==============================================================================

Image component sizes


      Code (inc. data)   RO Data    RW Data    ZI Data      Debug   Object Name

       308         26          0          8          0      57948   adc.o
        80         16          0          0          0       5142   bstim32_timing.o
       512         10          0          0          0      53614   fm33lc0xx_fl_adc.o
       136          6          0          0          0      31918   fm33lc0xx_fl_bstim32.o
       510          4          0          0          0      39065   fm33lc0xx_fl_dma.o
       316          4          0          0          0      46423   fm33lc0xx_fl_gpio.o
       240          8          0          0          0      40870   fm33lc0xx_fl_lptim32.o
        28          0          0          0          0         76   fm33lc0xx_fl_lpuart.o
       736        102          0          0          0      31623   fm33lc0xx_fl_rcc.o
       448         28          0          0          0      41007   fm33lc0xx_fl_uart.o
       154          4          0          0          0      15974   gpio.o
       520         64          0         24      10240       3791   heap_4.o
       150          0          0          0          0       4466   list.o
        48          4          0          0          0      10839   lptim32_timing.o
       222         64          0          8        100       2682   main.o
       278         20          0          0          0      66975   mf_config.o
       360         56          0          4          0       6388   port.o
      1266          0          0          0          0      12913   queue.o
        56         26        192          0       4096        752   startup_fm33lc0xx.o
       416         30          0          0          0       9217   system_fm33lc0xx.o
        92         26          0          0          0        514   taskadc.o
      2384        336          0         68        300      22000   tasks.o
       108         40          0          4          0       3229   taskuart.o
       842         56          0          0          0      30565   uart.o
       450         34          0          4          0      31387   user_init.o

    ----------------------------------------------------------------------
     10680        964        224        120      14736     569378   Object Totals
         0          0         32          0          0          0   (incl. Generated)
        20          0          0          0          0          0   (incl. Padding)

    ----------------------------------------------------------------------

      Code (inc. data)   RO Data    RW Data    ZI Data      Debug   Library Member Name

         8          0          0          0          0         68   __main.o
       108          0          0          0          0         76   __printf.o
         0          0          0          0          0          0   __rtentry.o
        12          0          0          0          0          0   __rtentry2.o
         6          0          0          0          0          0   __rtentry4.o
        60          8          0          0          0          0   __scatter.o
        26          0          0          0          0          0   __scatter_copy.o
        28          0          0          0          0          0   __scatter_zi.o
        48          6          0          0          0         88   _printf_char_common.o
        40          6          0          0          0         72   _printf_char_file.o
        10          0          0          0          0          0   _printf_d.o
       108         18          0          0          0         76   _printf_dec.o
        88          4         40          0          0         72   _printf_hex_int.o
       176          0          0          0          0         84   _printf_intcommon.o
         2          0          0          0          0          0   _printf_percent.o
         4          0          0          0          0          0   _printf_percent_end.o
        10          0          0          0          0          0   _printf_x.o
        18          0          0          0          0         68   aeabi_memset.o
       346          0          0          0          0         92   aeabi_sdiv.o
        16          0          0          0          0         68   exit.o
         8          0          0          0          0         60   ferror.o
         6          0          0          0          0        136   heapauxi.o
         2          0          0          0          0          0   libinit.o
         2          0          0          0          0          0   libinit2.o
         2          0          0          0          0          0   libshutdown.o
         2          0          0          0          0          0   libshutdown2.o
         8          4          0          0         96         68   libspace.o
       258          0          0          0          0         88   lludiv.o
        28          6          0          0          0         84   noretval__2printf.o
        64          0          0          0          0        108   rt_memclr.o
       186          0          0          0          0        144   rt_memcpy.o
         2          0          0          0          0          0   rtexit.o
        10          0          0          0          0          0   rtexit2.o
        40          0          0          0          0         60   rtudiv10.o
        62          0          0          0          0         80   sys_stackheap_outer.o
         2          0          0          0          0         68   use_no_semi.o
         2          0          0          0          0         68   use_no_semi_2.o

    ----------------------------------------------------------------------
      1804         52         40          0         96       1728   Library Totals
         6          0          0          0          0          0   (incl. Padding)

    ----------------------------------------------------------------------

      Code (inc. data)   RO Data    RW Data    ZI Data      Debug   Library Name

      1798         52         40          0         96       1728   c_p.l

    ----------------------------------------------------------------------
      1804         52         40          0         96       1728   Library Totals

    ----------------------------------------------------------------------

==============================================================================


      Code (inc. data)   RO Data    RW Data    ZI Data      Debug   

     12484       1016        264        120      14832     564558   Grand Totals
     12484       1016        264        120      14832     564558   ELF Image Totals
     12484       1016        264        120          0          0   ROM Totals

==============================================================================

    Total RO  Size (Code + RO Data)                12748 (  12.45kB)
    Total RW  Size (RW Data + ZI Data)             14952 (  14.60kB)
    Total ROM Size (Code + RO Data + RW Data)      12868 (  12.57kB)

==============================================================================

